ARM GAS  /tmp/cclF3zde.s 			page 1


   1              		.cpu cortex-m4
   2              		.eabi_attribute 27, 1
   3              		.eabi_attribute 28, 1
   4              		.eabi_attribute 20, 1
   5              		.eabi_attribute 21, 1
   6              		.eabi_attribute 23, 3
   7              		.eabi_attribute 24, 1
   8              		.eabi_attribute 25, 1
   9              		.eabi_attribute 26, 1
  10              		.eabi_attribute 30, 1
  11              		.eabi_attribute 34, 1
  12              		.eabi_attribute 18, 4
  13              		.file	"adc.cpp"
  14              		.text
  15              	.Ltext0:
  16              		.cfi_sections	.debug_frame
  17              		.section	.text._ZN3adcC2ENS_8adc_enumE,"ax",%progbits
  18              		.align	1
  19              		.global	_ZN3adcC2ENS_8adc_enumE
  20              		.arch armv7e-m
  21              		.syntax unified
  22              		.thumb
  23              		.thumb_func
  24              		.fpu fpv4-sp-d16
  26              	_ZN3adcC2ENS_8adc_enumE:
  27              		.fnstart
  28              	.LVL0:
  29              	.LFB131:
  30              		.file 1 "Core/Src/adc.cpp"
   1:Core/Src/adc.cpp **** #include "adc.hpp"
   2:Core/Src/adc.cpp **** 
   3:Core/Src/adc.cpp **** adc::adc(adc_enum adc_)
  31              		.loc 1 3 1 view -0
  32              		.cfi_startproc
  33              		@ args = 0, pretend = 0, frame = 0
  34              		@ frame_needed = 0, uses_anonymous_args = 0
  35              		@ link register save eliminated.
  36              	.LBB2:
  37              		.loc 1 3 23 is_stmt 0 view .LVU1
  38 0000 044B     		ldr	r3, .L4
  39 0002 8364     		str	r3, [r0, #72]	@ float
  40 0004 0023     		movs	r3, #0
  41 0006 C364     		str	r3, [r0, #76]	@ float
   4:Core/Src/adc.cpp **** {
   5:Core/Src/adc.cpp ****     switch(adc_)
  42              		.loc 1 5 5 is_stmt 1 view .LVU2
  43 0008 0129     		cmp	r1, #1
  44 000a 00D0     		beq	.L3
  45              	.L2:
  46              	.LBE2:
   6:Core/Src/adc.cpp ****     {
   7:Core/Src/adc.cpp ****         case ADC_1:
   8:Core/Src/adc.cpp ****             hadc.Instance = ADC1;
   9:Core/Src/adc.cpp ****             break;
  10:Core/Src/adc.cpp **** 
  11:Core/Src/adc.cpp ****     }
  12:Core/Src/adc.cpp **** }
ARM GAS  /tmp/cclF3zde.s 			page 2


  47              		.loc 1 12 1 is_stmt 0 view .LVU3
  48 000c 7047     		bx	lr
  49              	.L3:
  50              	.LBB3:
   7:Core/Src/adc.cpp ****             hadc.Instance = ADC1;
  51              		.loc 1 7 9 is_stmt 1 view .LVU4
   8:Core/Src/adc.cpp ****             break;
  52              		.loc 1 8 13 view .LVU5
   8:Core/Src/adc.cpp ****             break;
  53              		.loc 1 8 27 is_stmt 0 view .LVU6
  54 000e 024B     		ldr	r3, .L4+4
  55 0010 0360     		str	r3, [r0]
   9:Core/Src/adc.cpp **** 
  56              		.loc 1 9 13 is_stmt 1 view .LVU7
  57 0012 FBE7     		b	.L2
  58              	.L5:
  59              		.align	2
  60              	.L4:
  61 0014 3333D33A 		.word	986919731
  62 0018 00200140 		.word	1073815552
  63              	.LBE3:
  64              		.cfi_endproc
  65              	.LFE131:
  66              		.cantunwind
  67              		.fnend
  69              		.global	_ZN3adcC1ENS_8adc_enumE
  70              		.thumb_set _ZN3adcC1ENS_8adc_enumE,_ZN3adcC2ENS_8adc_enumE
  71              		.section	.text._ZN3adc12adc_getValueEv,"ax",%progbits
  72              		.align	1
  73              		.global	_ZN3adc12adc_getValueEv
  74              		.syntax unified
  75              		.thumb
  76              		.thumb_func
  77              		.fpu fpv4-sp-d16
  79              	_ZN3adc12adc_getValueEv:
  80              		.fnstart
  81              	.LVL1:
  82              	.LFB134:
  13:Core/Src/adc.cpp **** /**
  14:Core/Src/adc.cpp ****   * @brief ADC1 Initialization Function
  15:Core/Src/adc.cpp ****   * @param None
  16:Core/Src/adc.cpp ****   * @retval None
  17:Core/Src/adc.cpp ****   */
  18:Core/Src/adc.cpp **** void adc::init(void)
  19:Core/Src/adc.cpp **** {
  20:Core/Src/adc.cpp **** 
  21:Core/Src/adc.cpp ****   /* USER CODE BEGIN ADC1_Init 0 */
  22:Core/Src/adc.cpp **** 
  23:Core/Src/adc.cpp ****   /* USER CODE END ADC1_Init 0 */
  24:Core/Src/adc.cpp **** 
  25:Core/Src/adc.cpp ****   ADC_ChannelConfTypeDef sConfig = {0};
  26:Core/Src/adc.cpp **** 
  27:Core/Src/adc.cpp ****   /* USER CODE BEGIN ADC1_Init 1 */
  28:Core/Src/adc.cpp **** 
  29:Core/Src/adc.cpp ****   /* USER CODE END ADC1_Init 1 */
  30:Core/Src/adc.cpp ****   /** Configure the global features of the ADC (Clock, Resolution, Data Alignment and number of con
  31:Core/Src/adc.cpp ****   */
ARM GAS  /tmp/cclF3zde.s 			page 3


  32:Core/Src/adc.cpp ****   hadc.Init.ClockPrescaler = ADC_CLOCK_SYNC_PCLK_DIV2;
  33:Core/Src/adc.cpp ****   hadc.Init.Resolution = ADC_RESOLUTION_12B;
  34:Core/Src/adc.cpp ****   hadc.Init.ScanConvMode = ENABLE;
  35:Core/Src/adc.cpp ****   hadc.Init.ContinuousConvMode = ENABLE;
  36:Core/Src/adc.cpp ****   hadc.Init.DiscontinuousConvMode = DISABLE;
  37:Core/Src/adc.cpp ****   hadc.Init.ExternalTrigConvEdge = ADC_EXTERNALTRIGCONVEDGE_NONE;
  38:Core/Src/adc.cpp ****   hadc.Init.ExternalTrigConv = ADC_SOFTWARE_START;
  39:Core/Src/adc.cpp ****   hadc.Init.DataAlign = ADC_DATAALIGN_RIGHT;
  40:Core/Src/adc.cpp ****   hadc.Init.NbrOfConversion = 1;
  41:Core/Src/adc.cpp ****   hadc.Init.DMAContinuousRequests = DISABLE;
  42:Core/Src/adc.cpp ****   hadc.Init.EOCSelection = ADC_EOC_SINGLE_CONV;
  43:Core/Src/adc.cpp ****   if (HAL_ADC_Init(&hadc) != HAL_OK)
  44:Core/Src/adc.cpp ****   {
  45:Core/Src/adc.cpp ****     Error_Handler();
  46:Core/Src/adc.cpp ****   }
  47:Core/Src/adc.cpp ****   /** Configure for the selected ADC regular channel its corresponding rank in the sequencer and it
  48:Core/Src/adc.cpp ****   */
  49:Core/Src/adc.cpp ****   sConfig.Channel = ADC_CHANNEL_12;
  50:Core/Src/adc.cpp ****   sConfig.Rank = 1;
  51:Core/Src/adc.cpp ****   sConfig.SamplingTime = ADC_SAMPLETIME_480CYCLES;
  52:Core/Src/adc.cpp ****   if (HAL_ADC_ConfigChannel(&hadc, &sConfig) != HAL_OK)
  53:Core/Src/adc.cpp ****   {
  54:Core/Src/adc.cpp ****     Error_Handler();
  55:Core/Src/adc.cpp ****   }
  56:Core/Src/adc.cpp **** 
  57:Core/Src/adc.cpp **** 
  58:Core/Src/adc.cpp **** 
  59:Core/Src/adc.cpp **** }
  60:Core/Src/adc.cpp **** 
  61:Core/Src/adc.cpp **** 
  62:Core/Src/adc.cpp **** float adc::adc_getValue()
  63:Core/Src/adc.cpp **** {
  83              		.loc 1 63 1 view -0
  84              		.cfi_startproc
  85              		@ args = 0, pretend = 0, frame = 0
  86              		@ frame_needed = 0, uses_anonymous_args = 0
  87              		@ link register save eliminated.
  64:Core/Src/adc.cpp ****     float f=4.0;
  88              		.loc 1 64 5 view .LVU9
  65:Core/Src/adc.cpp ****     // HAL_ADC_Start (&hadc);
  66:Core/Src/adc.cpp ****     // HAL_ADC_PollForConversion (&hadc, 5);
  67:Core/Src/adc.cpp ****     // f = eq_a*HAL_ADC_GetValue (&hadc)+eq_b; //y=a*x+b 
  68:Core/Src/adc.cpp ****     // HAL_ADC_Stop (&hadc);
  69:Core/Src/adc.cpp ****     return f;
  89              		.loc 1 69 5 view .LVU10
  70:Core/Src/adc.cpp **** }
  90              		.loc 1 70 1 is_stmt 0 view .LVU11
  91 0000 B1EE000A 		vmov.f32	s0, #4.0e+0
  92 0004 7047     		bx	lr
  93              		.cfi_endproc
  94              	.LFE134:
  95              		.cantunwind
  96              		.fnend
  98              		.section	.text._ZN3adc15adc_setEquationEff,"ax",%progbits
  99              		.align	1
 100              		.global	_ZN3adc15adc_setEquationEff
 101              		.syntax unified
ARM GAS  /tmp/cclF3zde.s 			page 4


 102              		.thumb
 103              		.thumb_func
 104              		.fpu fpv4-sp-d16
 106              	_ZN3adc15adc_setEquationEff:
 107              		.fnstart
 108              	.LVL2:
 109              	.LFB135:
  71:Core/Src/adc.cpp **** void adc::adc_setEquation(float a, float b)
  72:Core/Src/adc.cpp **** {
 110              		.loc 1 72 1 is_stmt 1 view -0
 111              		.cfi_startproc
 112              		@ args = 0, pretend = 0, frame = 0
 113              		@ frame_needed = 0, uses_anonymous_args = 0
 114              		@ link register save eliminated.
  73:Core/Src/adc.cpp ****     eq_a=a;
 115              		.loc 1 73 5 view .LVU13
 116              		.loc 1 73 9 is_stmt 0 view .LVU14
 117 0000 80ED120A 		vstr.32	s0, [r0, #72]
  74:Core/Src/adc.cpp ****     eq_b=b;
 118              		.loc 1 74 5 is_stmt 1 view .LVU15
 119              		.loc 1 74 9 is_stmt 0 view .LVU16
 120 0004 C0ED130A 		vstr.32	s1, [r0, #76]
  75:Core/Src/adc.cpp **** }
 121              		.loc 1 75 1 view .LVU17
 122 0008 7047     		bx	lr
 123              		.cfi_endproc
 124              	.LFE135:
 125              		.cantunwind
 126              		.fnend
 128              		.section	.text._ZN3adc13Error_HandlerEv,"ax",%progbits
 129              		.align	1
 130              		.global	_ZN3adc13Error_HandlerEv
 131              		.syntax unified
 132              		.thumb
 133              		.thumb_func
 134              		.fpu fpv4-sp-d16
 136              	_ZN3adc13Error_HandlerEv:
 137              		.fnstart
 138              	.LVL3:
 139              	.LFB136:
  76:Core/Src/adc.cpp **** void adc::Error_Handler()
  77:Core/Src/adc.cpp **** {
 140              		.loc 1 77 1 is_stmt 1 view -0
 141              		.cfi_startproc
 142              		@ args = 0, pretend = 0, frame = 0
 143              		@ frame_needed = 0, uses_anonymous_args = 0
 144              		@ link register save eliminated.
  78:Core/Src/adc.cpp ****     __NOP();
 145              		.loc 1 78 5 view .LVU19
 146              		.loc 1 78 12 is_stmt 0 view .LVU20
 147              		.syntax unified
 148              	@ 78 "Core/Src/adc.cpp" 1
 149 0000 00BF     		nop
 150              	@ 0 "" 2
  79:Core/Src/adc.cpp **** }...
 151              		.loc 1 79 1 view .LVU21
 152              		.thumb
ARM GAS  /tmp/cclF3zde.s 			page 5


 153              		.syntax unified
 154 0002 7047     		bx	lr
 155              		.cfi_endproc
 156              	.LFE136:
 157              		.cantunwind
 158              		.fnend
 160              		.section	.text._ZN3adc4initEv,"ax",%progbits
 161              		.align	1
 162              		.global	_ZN3adc4initEv
 163              		.syntax unified
 164              		.thumb
 165              		.thumb_func
 166              		.fpu fpv4-sp-d16
 168              	_ZN3adc4initEv:
 169              		.fnstart
 170              	.LVL4:
 171              	.LFB133:
  19:Core/Src/adc.cpp **** {
 172              		.loc 1 19 1 is_stmt 1 view -0
 173              		.cfi_startproc
 174              		@ args = 0, pretend = 0, frame = 16
 175              		@ frame_needed = 0, uses_anonymous_args = 0
  19:Core/Src/adc.cpp **** {
 176              		.loc 1 19 1 is_stmt 0 view .LVU23
 177 0000 10B5     		push	{r4, lr}
 178              		.save {r4, lr}
 179              	.LCFI0:
 180              		.cfi_def_cfa_offset 8
 181              		.cfi_offset 4, -8
 182              		.cfi_offset 14, -4
 183              		.pad #16
 184 0002 84B0     		sub	sp, sp, #16
 185              	.LCFI1:
 186              		.cfi_def_cfa_offset 24
 187 0004 0446     		mov	r4, r0
  25:Core/Src/adc.cpp ****   ADC_ChannelConfTypeDef sConfig = {0};
 188              		.loc 1 25 3 is_stmt 1 view .LVU24
  25:Core/Src/adc.cpp ****   ADC_ChannelConfTypeDef sConfig = {0};
 189              		.loc 1 25 26 is_stmt 0 view .LVU25
 190 0006 0023     		movs	r3, #0
 191 0008 0093     		str	r3, [sp]
 192 000a 0193     		str	r3, [sp, #4]
 193 000c 0293     		str	r3, [sp, #8]
 194 000e 0393     		str	r3, [sp, #12]
  32:Core/Src/adc.cpp ****   hadc.Init.ClockPrescaler = ADC_CLOCK_SYNC_PCLK_DIV2;
 195              		.loc 1 32 3 is_stmt 1 view .LVU26
  32:Core/Src/adc.cpp ****   hadc.Init.ClockPrescaler = ADC_CLOCK_SYNC_PCLK_DIV2;
 196              		.loc 1 32 28 is_stmt 0 view .LVU27
 197 0010 4360     		str	r3, [r0, #4]
  33:Core/Src/adc.cpp ****   hadc.Init.Resolution = ADC_RESOLUTION_12B;
 198              		.loc 1 33 3 is_stmt 1 view .LVU28
  33:Core/Src/adc.cpp ****   hadc.Init.Resolution = ADC_RESOLUTION_12B;
 199              		.loc 1 33 24 is_stmt 0 view .LVU29
 200 0012 8360     		str	r3, [r0, #8]
  34:Core/Src/adc.cpp ****   hadc.Init.ScanConvMode = ENABLE;
 201              		.loc 1 34 3 is_stmt 1 view .LVU30
  34:Core/Src/adc.cpp ****   hadc.Init.ScanConvMode = ENABLE;
ARM GAS  /tmp/cclF3zde.s 			page 6


 202              		.loc 1 34 26 is_stmt 0 view .LVU31
 203 0014 0122     		movs	r2, #1
 204 0016 0261     		str	r2, [r0, #16]
  35:Core/Src/adc.cpp ****   hadc.Init.ContinuousConvMode = ENABLE;
 205              		.loc 1 35 3 is_stmt 1 view .LVU32
  35:Core/Src/adc.cpp ****   hadc.Init.ContinuousConvMode = ENABLE;
 206              		.loc 1 35 32 is_stmt 0 view .LVU33
 207 0018 0276     		strb	r2, [r0, #24]
  36:Core/Src/adc.cpp ****   hadc.Init.DiscontinuousConvMode = DISABLE;
 208              		.loc 1 36 3 is_stmt 1 view .LVU34
  36:Core/Src/adc.cpp ****   hadc.Init.DiscontinuousConvMode = DISABLE;
 209              		.loc 1 36 35 is_stmt 0 view .LVU35
 210 001a 80F82030 		strb	r3, [r0, #32]
  37:Core/Src/adc.cpp ****   hadc.Init.ExternalTrigConvEdge = ADC_EXTERNALTRIGCONVEDGE_NONE;
 211              		.loc 1 37 3 is_stmt 1 view .LVU36
  37:Core/Src/adc.cpp ****   hadc.Init.ExternalTrigConvEdge = ADC_EXTERNALTRIGCONVEDGE_NONE;
 212              		.loc 1 37 34 is_stmt 0 view .LVU37
 213 001e C362     		str	r3, [r0, #44]
  38:Core/Src/adc.cpp ****   hadc.Init.ExternalTrigConv = ADC_SOFTWARE_START;
 214              		.loc 1 38 3 is_stmt 1 view .LVU38
  38:Core/Src/adc.cpp ****   hadc.Init.ExternalTrigConv = ADC_SOFTWARE_START;
 215              		.loc 1 38 30 is_stmt 0 view .LVU39
 216 0020 0F49     		ldr	r1, .L15
 217 0022 8162     		str	r1, [r0, #40]
  39:Core/Src/adc.cpp ****   hadc.Init.DataAlign = ADC_DATAALIGN_RIGHT;
 218              		.loc 1 39 3 is_stmt 1 view .LVU40
  39:Core/Src/adc.cpp ****   hadc.Init.DataAlign = ADC_DATAALIGN_RIGHT;
 219              		.loc 1 39 23 is_stmt 0 view .LVU41
 220 0024 C360     		str	r3, [r0, #12]
  40:Core/Src/adc.cpp ****   hadc.Init.NbrOfConversion = 1;
 221              		.loc 1 40 3 is_stmt 1 view .LVU42
  40:Core/Src/adc.cpp ****   hadc.Init.NbrOfConversion = 1;
 222              		.loc 1 40 29 is_stmt 0 view .LVU43
 223 0026 C261     		str	r2, [r0, #28]
  41:Core/Src/adc.cpp ****   hadc.Init.DMAContinuousRequests = DISABLE;
 224              		.loc 1 41 3 is_stmt 1 view .LVU44
  41:Core/Src/adc.cpp ****   hadc.Init.DMAContinuousRequests = DISABLE;
 225              		.loc 1 41 35 is_stmt 0 view .LVU45
 226 0028 80F83030 		strb	r3, [r0, #48]
  42:Core/Src/adc.cpp ****   hadc.Init.EOCSelection = ADC_EOC_SINGLE_CONV;
 227              		.loc 1 42 3 is_stmt 1 view .LVU46
  42:Core/Src/adc.cpp ****   hadc.Init.EOCSelection = ADC_EOC_SINGLE_CONV;
 228              		.loc 1 42 26 is_stmt 0 view .LVU47
 229 002c 4261     		str	r2, [r0, #20]
  43:Core/Src/adc.cpp ****   if (HAL_ADC_Init(&hadc) != HAL_OK)
 230              		.loc 1 43 3 is_stmt 1 view .LVU48
  43:Core/Src/adc.cpp ****   if (HAL_ADC_Init(&hadc) != HAL_OK)
 231              		.loc 1 43 19 is_stmt 0 view .LVU49
 232 002e FFF7FEFF 		bl	HAL_ADC_Init
 233              	.LVL5:
  43:Core/Src/adc.cpp ****   if (HAL_ADC_Init(&hadc) != HAL_OK)
 234              		.loc 1 43 3 view .LVU50
 235 0032 60B9     		cbnz	r0, .L13
 236              	.L10:
  49:Core/Src/adc.cpp ****   sConfig.Channel = ADC_CHANNEL_12;
 237              		.loc 1 49 3 is_stmt 1 view .LVU51
  49:Core/Src/adc.cpp ****   sConfig.Channel = ADC_CHANNEL_12;
ARM GAS  /tmp/cclF3zde.s 			page 7


 238              		.loc 1 49 19 is_stmt 0 view .LVU52
 239 0034 0C23     		movs	r3, #12
 240 0036 0093     		str	r3, [sp]
  50:Core/Src/adc.cpp ****   sConfig.Rank = 1;
 241              		.loc 1 50 3 is_stmt 1 view .LVU53
  50:Core/Src/adc.cpp ****   sConfig.Rank = 1;
 242              		.loc 1 50 16 is_stmt 0 view .LVU54
 243 0038 0123     		movs	r3, #1
 244 003a 0193     		str	r3, [sp, #4]
  51:Core/Src/adc.cpp ****   sConfig.SamplingTime = ADC_SAMPLETIME_480CYCLES;
 245              		.loc 1 51 3 is_stmt 1 view .LVU55
  51:Core/Src/adc.cpp ****   sConfig.SamplingTime = ADC_SAMPLETIME_480CYCLES;
 246              		.loc 1 51 24 is_stmt 0 view .LVU56
 247 003c 0723     		movs	r3, #7
 248 003e 0293     		str	r3, [sp, #8]
  52:Core/Src/adc.cpp ****   if (HAL_ADC_ConfigChannel(&hadc, &sConfig) != HAL_OK)
 249              		.loc 1 52 3 is_stmt 1 view .LVU57
  52:Core/Src/adc.cpp ****   if (HAL_ADC_ConfigChannel(&hadc, &sConfig) != HAL_OK)
 250              		.loc 1 52 28 is_stmt 0 view .LVU58
 251 0040 6946     		mov	r1, sp
 252 0042 2046     		mov	r0, r4
 253 0044 FFF7FEFF 		bl	HAL_ADC_ConfigChannel
 254              	.LVL6:
  52:Core/Src/adc.cpp ****   if (HAL_ADC_ConfigChannel(&hadc, &sConfig) != HAL_OK)
 255              		.loc 1 52 3 view .LVU59
 256 0048 28B9     		cbnz	r0, .L14
 257              	.L9:
  59:Core/Src/adc.cpp **** }
 258              		.loc 1 59 1 view .LVU60
 259 004a 04B0     		add	sp, sp, #16
 260              	.LCFI2:
 261              		.cfi_remember_state
 262              		.cfi_def_cfa_offset 8
 263              		@ sp needed
 264 004c 10BD     		pop	{r4, pc}
 265              	.LVL7:
 266              	.L13:
 267              	.LCFI3:
 268              		.cfi_restore_state
  45:Core/Src/adc.cpp ****     Error_Handler();
 269              		.loc 1 45 5 is_stmt 1 view .LVU61
  45:Core/Src/adc.cpp ****     Error_Handler();
 270              		.loc 1 45 18 is_stmt 0 view .LVU62
 271 004e 2046     		mov	r0, r4
 272 0050 FFF7FEFF 		bl	_ZN3adc13Error_HandlerEv
 273              	.LVL8:
 274 0054 EEE7     		b	.L10
 275              	.L14:
  54:Core/Src/adc.cpp ****     Error_Handler();
 276              		.loc 1 54 5 is_stmt 1 view .LVU63
  54:Core/Src/adc.cpp ****     Error_Handler();
 277              		.loc 1 54 18 is_stmt 0 view .LVU64
 278 0056 2046     		mov	r0, r4
 279 0058 FFF7FEFF 		bl	_ZN3adc13Error_HandlerEv
 280              	.LVL9:
  59:Core/Src/adc.cpp **** }
 281              		.loc 1 59 1 view .LVU65
ARM GAS  /tmp/cclF3zde.s 			page 8


 282 005c F5E7     		b	.L9
 283              	.L16:
 284 005e 00BF     		.align	2
 285              	.L15:
 286 0060 0100000F 		.word	251658241
 287              		.cfi_endproc
 288              	.LFE133:
 289              		.fnend
 291              		.text
 292              	.Letext0:
 293              		.file 2 "/usr/lib/gcc/arm-none-eabi/9.2.1/include/stdint.h"
 294              		.file 3 "Drivers/CMSIS/Include/core_cm4.h"
 295              		.file 4 "Drivers/CMSIS/Device/ST/STM32F4xx/Include/system_stm32f4xx.h"
 296              		.file 5 "Drivers/CMSIS/Device/ST/STM32F4xx/Include/stm32f411xe.h"
 297              		.file 6 "Drivers/CMSIS/Device/ST/STM32F4xx/Include/stm32f4xx.h"
 298              		.file 7 "Drivers/STM32F4xx_HAL_Driver/Inc/stm32f4xx_hal_def.h"
 299              		.file 8 "Drivers/STM32F4xx_HAL_Driver/Inc/stm32f4xx_hal_dma.h"
 300              		.file 9 "Drivers/STM32F4xx_HAL_Driver/Inc/stm32f4xx_hal_adc.h"
 301              		.file 10 "Drivers/STM32F4xx_HAL_Driver/Inc/stm32f4xx_hal.h"
 302              		.file 11 "Core/Inc/adc.hpp"
ARM GAS  /tmp/cclF3zde.s 			page 9

