ARM GAS  /tmp/cctozXzN.s 			page 1


   1              		.cpu cortex-m4
   2              		.eabi_attribute 27, 1
   3              		.eabi_attribute 28, 1
   4              		.eabi_attribute 20, 1
   5              		.eabi_attribute 21, 1
   6              		.eabi_attribute 23, 3
   7              		.eabi_attribute 24, 1
   8              		.eabi_attribute 25, 1
   9              		.eabi_attribute 26, 1
  10              		.eabi_attribute 30, 1
  11              		.eabi_attribute 34, 1
  12              		.eabi_attribute 18, 4
  13              		.file	"i2s.cpp"
  14              		.text
  15              	.Ltext0:
  16              		.cfi_sections	.debug_frame
  17              		.section	.text._ZN3i2s10set_handleENS_7i2s_numE,"ax",%progbits
  18              		.align	1
  19              		.global	_ZN3i2s10set_handleENS_7i2s_numE
  20              		.arch armv7e-m
  21              		.syntax unified
  22              		.thumb
  23              		.thumb_func
  24              		.fpu fpv4-sp-d16
  26              	_ZN3i2s10set_handleENS_7i2s_numE:
  27              		.fnstart
  28              	.LVL0:
  29              	.LFB130:
  30              		.file 1 "Core/Src/i2s.cpp"
   1:Core/Src/i2s.cpp **** #include "i2s.hpp"
   2:Core/Src/i2s.cpp **** 
   3:Core/Src/i2s.cpp **** void i2s::set_handle(i2s_num i2sNum)
   4:Core/Src/i2s.cpp **** {
  31              		.loc 1 4 1 view -0
  32              		.cfi_startproc
  33              		@ args = 0, pretend = 0, frame = 0
  34              		@ frame_needed = 0, uses_anonymous_args = 0
  35              		@ link register save eliminated.
   5:Core/Src/i2s.cpp ****     switch(i2sNum)
  36              		.loc 1 5 5 view .LVU1
  37 0000 0329     		cmp	r1, #3
  38 0002 07D0     		beq	.L2
  39 0004 0429     		cmp	r1, #4
  40 0006 08D0     		beq	.L3
  41 0008 0229     		cmp	r1, #2
  42 000a 00D0     		beq	.L5
  43              	.L1:
   6:Core/Src/i2s.cpp ****     {
   7:Core/Src/i2s.cpp ****         case I2S2:
   8:Core/Src/i2s.cpp ****             i2sx.Instance = SPI2;
   9:Core/Src/i2s.cpp ****             break;
  10:Core/Src/i2s.cpp ****         case I2S3:
  11:Core/Src/i2s.cpp ****             i2sx.Instance = SPI3;
  12:Core/Src/i2s.cpp ****             break;
  13:Core/Src/i2s.cpp ****         case I2S4:
  14:Core/Src/i2s.cpp ****             i2sx.Instance = SPI4;
  15:Core/Src/i2s.cpp ****             break;
ARM GAS  /tmp/cctozXzN.s 			page 2


  16:Core/Src/i2s.cpp ****     }
  17:Core/Src/i2s.cpp **** 
  18:Core/Src/i2s.cpp **** }
  44              		.loc 1 18 1 is_stmt 0 view .LVU2
  45 000c 7047     		bx	lr
  46              	.L5:
   7:Core/Src/i2s.cpp ****             i2sx.Instance = SPI2;
  47              		.loc 1 7 9 is_stmt 1 view .LVU3
   8:Core/Src/i2s.cpp ****             break;
  48              		.loc 1 8 13 view .LVU4
   8:Core/Src/i2s.cpp ****             break;
  49              		.loc 1 8 27 is_stmt 0 view .LVU5
  50 000e 044B     		ldr	r3, .L6
  51 0010 0360     		str	r3, [r0]
   9:Core/Src/i2s.cpp ****         case I2S3:
  52              		.loc 1 9 13 is_stmt 1 view .LVU6
  53 0012 7047     		bx	lr
  54              	.L2:
  10:Core/Src/i2s.cpp ****             i2sx.Instance = SPI3;
  55              		.loc 1 10 9 view .LVU7
  11:Core/Src/i2s.cpp ****             break;
  56              		.loc 1 11 13 view .LVU8
  11:Core/Src/i2s.cpp ****             break;
  57              		.loc 1 11 27 is_stmt 0 view .LVU9
  58 0014 034B     		ldr	r3, .L6+4
  59 0016 0360     		str	r3, [r0]
  12:Core/Src/i2s.cpp ****         case I2S4:
  60              		.loc 1 12 13 is_stmt 1 view .LVU10
  61 0018 7047     		bx	lr
  62              	.L3:
  13:Core/Src/i2s.cpp ****             i2sx.Instance = SPI4;
  63              		.loc 1 13 9 view .LVU11
  14:Core/Src/i2s.cpp ****             break;
  64              		.loc 1 14 13 view .LVU12
  14:Core/Src/i2s.cpp ****             break;
  65              		.loc 1 14 27 is_stmt 0 view .LVU13
  66 001a 034B     		ldr	r3, .L6+8
  67 001c 0360     		str	r3, [r0]
  15:Core/Src/i2s.cpp ****     }
  68              		.loc 1 15 13 is_stmt 1 view .LVU14
  69              		.loc 1 18 1 is_stmt 0 view .LVU15
  70 001e F5E7     		b	.L1
  71              	.L7:
  72              		.align	2
  73              	.L6:
  74 0020 00380040 		.word	1073756160
  75 0024 003C0040 		.word	1073757184
  76 0028 00340140 		.word	1073820672
  77              		.cfi_endproc
  78              	.LFE130:
  79              		.cantunwind
  80              		.fnend
  82              		.section	.text._ZN3i2s13set_audiofreqEm,"ax",%progbits
  83              		.align	1
  84              		.global	_ZN3i2s13set_audiofreqEm
  85              		.syntax unified
  86              		.thumb
ARM GAS  /tmp/cctozXzN.s 			page 3


  87              		.thumb_func
  88              		.fpu fpv4-sp-d16
  90              	_ZN3i2s13set_audiofreqEm:
  91              		.fnstart
  92              	.LVL1:
  93              	.LFB132:
  19:Core/Src/i2s.cpp **** 
  20:Core/Src/i2s.cpp **** void i2s::init(uint32_t audioFreq)
  21:Core/Src/i2s.cpp **** {
  22:Core/Src/i2s.cpp ****     set_audiofreq(audioFreq);
  23:Core/Src/i2s.cpp **** 
  24:Core/Src/i2s.cpp ****     config_pll_clock(audioFreq);
  25:Core/Src/i2s.cpp ****     if (HAL_I2S_Init(&i2sx) != HAL_OK)
  26:Core/Src/i2s.cpp ****     {
  27:Core/Src/i2s.cpp ****         error_handler();
  28:Core/Src/i2s.cpp ****     }
  29:Core/Src/i2s.cpp **** }
  30:Core/Src/i2s.cpp **** 
  31:Core/Src/i2s.cpp **** uint8_t i2s::set_audiofreq(uint32_t audioFreq)
  32:Core/Src/i2s.cpp **** {
  94              		.loc 1 32 1 is_stmt 1 view -0
  95              		.cfi_startproc
  96              		@ args = 0, pretend = 0, frame = 0
  97              		@ frame_needed = 0, uses_anonymous_args = 0
  98              		.loc 1 32 1 is_stmt 0 view .LVU17
  99 0000 10B5     		push	{r4, lr}
 100              		.save {r4, lr}
 101              	.LCFI0:
 102              		.cfi_def_cfa_offset 8
 103              		.cfi_offset 4, -8
 104              		.cfi_offset 14, -4
  33:Core/Src/i2s.cpp ****   /* Initialize the hAudioOutI2s Instance parameter */
  34:Core/Src/i2s.cpp **** 
  35:Core/Src/i2s.cpp ****  /* Disable I2S block */
  36:Core/Src/i2s.cpp ****   __HAL_I2S_DISABLE(&i2sx);
 105              		.loc 1 36 3 is_stmt 1 view .LVU18
 106 0002 0468     		ldr	r4, [r0]
 107 0004 E269     		ldr	r2, [r4, #28]
 108 0006 22F48062 		bic	r2, r2, #1024
 109 000a E261     		str	r2, [r4, #28]
  37:Core/Src/i2s.cpp **** 
  38:Core/Src/i2s.cpp ****   /* I2S3 peripheral configuration */
  39:Core/Src/i2s.cpp ****   i2sx.Init.AudioFreq   = audioFreq;
 110              		.loc 1 39 3 view .LVU19
 111              		.loc 1 39 25 is_stmt 0 view .LVU20
 112 000c 4161     		str	r1, [r0, #20]
  40:Core/Src/i2s.cpp ****   i2sx.Init.ClockSource = I2S_CLOCK_PLL;
 113              		.loc 1 40 3 is_stmt 1 view .LVU21
 114              		.loc 1 40 25 is_stmt 0 view .LVU22
 115 000e 0022     		movs	r2, #0
 116 0010 C261     		str	r2, [r0, #28]
  41:Core/Src/i2s.cpp ****   i2sx.Init.CPOL        = I2S_CPOL_LOW;
 117              		.loc 1 41 3 is_stmt 1 view .LVU23
 118              		.loc 1 41 25 is_stmt 0 view .LVU24
 119 0012 8261     		str	r2, [r0, #24]
  42:Core/Src/i2s.cpp ****   i2sx.Init.DataFormat  = I2S_DATAFORMAT_16B;
 120              		.loc 1 42 3 is_stmt 1 view .LVU25
ARM GAS  /tmp/cctozXzN.s 			page 4


 121              		.loc 1 42 25 is_stmt 0 view .LVU26
 122 0014 C260     		str	r2, [r0, #12]
  43:Core/Src/i2s.cpp ****   i2sx.Init.MCLKOutput  = I2S_MCLKOUTPUT_ENABLE;
 123              		.loc 1 43 3 is_stmt 1 view .LVU27
 124              		.loc 1 43 25 is_stmt 0 view .LVU28
 125 0016 4FF40071 		mov	r1, #512
 126              	.LVL2:
 127              		.loc 1 43 25 view .LVU29
 128 001a 0161     		str	r1, [r0, #16]
  44:Core/Src/i2s.cpp ****   i2sx.Init.Mode        = I2S_MODE_MASTER_TX;
 129              		.loc 1 44 3 is_stmt 1 view .LVU30
 130              		.loc 1 44 25 is_stmt 0 view .LVU31
 131 001c 4160     		str	r1, [r0, #4]
  45:Core/Src/i2s.cpp ****   i2sx.Init.Standard    = I2S_STANDARD_PHILIPS;
 132              		.loc 1 45 3 is_stmt 1 view .LVU32
 133              		.loc 1 45 25 is_stmt 0 view .LVU33
 134 001e 8260     		str	r2, [r0, #8]
  46:Core/Src/i2s.cpp ****   
  47:Core/Src/i2s.cpp ****   /* Initialize the I2S peripheral with the structure above */
  48:Core/Src/i2s.cpp ****   if(HAL_I2S_Init(&i2sx) != HAL_OK)
 135              		.loc 1 48 3 is_stmt 1 view .LVU34
 136              		.loc 1 48 18 is_stmt 0 view .LVU35
 137 0020 FFF7FEFF 		bl	HAL_I2S_Init
 138              	.LVL3:
 139              		.loc 1 48 3 view .LVU36
 140 0024 08B1     		cbz	r0, .L10
  49:Core/Src/i2s.cpp ****   {
  50:Core/Src/i2s.cpp ****     return false;
 141              		.loc 1 50 12 view .LVU37
 142 0026 0020     		movs	r0, #0
 143              	.L9:
  51:Core/Src/i2s.cpp ****   }
  52:Core/Src/i2s.cpp ****   else
  53:Core/Src/i2s.cpp ****   {
  54:Core/Src/i2s.cpp ****     return true;
  55:Core/Src/i2s.cpp ****   }
  56:Core/Src/i2s.cpp **** }
 144              		.loc 1 56 1 view .LVU38
 145 0028 10BD     		pop	{r4, pc}
 146              	.L10:
  54:Core/Src/i2s.cpp ****   }
 147              		.loc 1 54 12 view .LVU39
 148 002a 0120     		movs	r0, #1
 149 002c FCE7     		b	.L9
 150              		.cfi_endproc
 151              	.LFE132:
 152              		.fnend
 154              		.section	.text._ZN3i2s16config_pll_clockEm,"ax",%progbits
 155              		.align	1
 156              		.global	_ZN3i2s16config_pll_clockEm
 157              		.syntax unified
 158              		.thumb
 159              		.thumb_func
 160              		.fpu fpv4-sp-d16
 162              	_ZN3i2s16config_pll_clockEm:
 163              		.fnstart
 164              	.LVL4:
ARM GAS  /tmp/cctozXzN.s 			page 5


 165              	.LFB133:
  57:Core/Src/i2s.cpp **** 
  58:Core/Src/i2s.cpp **** void i2s::config_pll_clock(uint32_t audioFreq)
  59:Core/Src/i2s.cpp **** {
 166              		.loc 1 59 1 is_stmt 1 view -0
 167              		.cfi_startproc
 168              		@ args = 0, pretend = 0, frame = 24
 169              		@ frame_needed = 0, uses_anonymous_args = 0
 170              		.loc 1 59 1 is_stmt 0 view .LVU41
 171 0000 30B5     		push	{r4, r5, lr}
 172              		.save {r4, r5, lr}
 173              	.LCFI1:
 174              		.cfi_def_cfa_offset 12
 175              		.cfi_offset 4, -12
 176              		.cfi_offset 5, -8
 177              		.cfi_offset 14, -4
 178              		.pad #28
 179 0002 87B0     		sub	sp, sp, #28
 180              	.LCFI2:
 181              		.cfi_def_cfa_offset 40
 182 0004 0446     		mov	r4, r0
  60:Core/Src/i2s.cpp ****     RCC_PeriphCLKInitTypeDef rccclkinit;
 183              		.loc 1 60 5 is_stmt 1 view .LVU42
  61:Core/Src/i2s.cpp ****     uint8_t index = 0, freqindex = 0xFF;
 184              		.loc 1 61 5 view .LVU43
 185              	.LVL5:
  62:Core/Src/i2s.cpp **** 
  63:Core/Src/i2s.cpp ****     for(index = 0; index < 8; index++)
 186              		.loc 1 63 5 view .LVU44
  61:Core/Src/i2s.cpp ****     uint8_t index = 0, freqindex = 0xFF;
 187              		.loc 1 61 24 is_stmt 0 view .LVU45
 188 0006 FF25     		movs	r5, #255
 189              		.loc 1 63 15 view .LVU46
 190 0008 0023     		movs	r3, #0
 191 000a 01E0     		b	.L15
 192              	.LVL6:
 193              	.L14:
 194              		.loc 1 63 5 is_stmt 1 discriminator 2 view .LVU47
 195 000c 0133     		adds	r3, r3, #1
 196              	.LVL7:
 197              		.loc 1 63 5 is_stmt 0 discriminator 2 view .LVU48
 198 000e DBB2     		uxtb	r3, r3
 199              	.LVL8:
 200              	.L15:
 201              		.loc 1 63 26 is_stmt 1 discriminator 1 view .LVU49
 202 0010 072B     		cmp	r3, #7
 203 0012 07D8     		bhi	.L13
  64:Core/Src/i2s.cpp ****     {
  65:Core/Src/i2s.cpp ****     if(I2SFreq[index] == audioFreq)
 204              		.loc 1 65 5 view .LVU50
 205              		.loc 1 65 21 is_stmt 0 view .LVU51
 206 0014 03F11202 		add	r2, r3, #18
 207 0018 54F82220 		ldr	r2, [r4, r2, lsl #2]
 208              		.loc 1 65 5 view .LVU52
 209 001c 8A42     		cmp	r2, r1
 210 001e F5D1     		bne	.L14
  66:Core/Src/i2s.cpp ****     {
ARM GAS  /tmp/cctozXzN.s 			page 6


  67:Core/Src/i2s.cpp ****         freqindex = index;
 211              		.loc 1 67 19 view .LVU53
 212 0020 1D46     		mov	r5, r3
 213              	.LVL9:
 214              		.loc 1 67 19 view .LVU54
 215 0022 F3E7     		b	.L14
 216              	.LVL10:
 217              	.L13:
  68:Core/Src/i2s.cpp ****     }
  69:Core/Src/i2s.cpp ****     }
  70:Core/Src/i2s.cpp ****     //PLLI2SCLK=50Mhz
  71:Core/Src/i2s.cpp ****     /* Enable PLLI2S clock */
  72:Core/Src/i2s.cpp ****     HAL_RCCEx_GetPeriphCLKConfig(&rccclkinit);
 218              		.loc 1 72 5 is_stmt 1 view .LVU55
 219              		.loc 1 72 33 is_stmt 0 view .LVU56
 220 0024 6846     		mov	r0, sp
 221              	.LVL11:
 222              		.loc 1 72 33 view .LVU57
 223 0026 FFF7FEFF 		bl	HAL_RCCEx_GetPeriphCLKConfig
 224              	.LVL12:
  73:Core/Src/i2s.cpp ****     /* PLLI2S_VCO Input = HSE_VALUE/PLL_M = 2 Mhz */
  74:Core/Src/i2s.cpp ****     if ((freqindex & 0x7) == 0)
 225              		.loc 1 74 5 is_stmt 1 view .LVU58
 226 002a 15F0070F 		tst	r5, #7
 227 002e 0FD1     		bne	.L16
  75:Core/Src/i2s.cpp ****     {
  76:Core/Src/i2s.cpp ****     /* I2S clock config
  77:Core/Src/i2s.cpp ****     PLLI2S_VCO = f(VCO clock) = f(PLLI2S clock input) × (PLLI2SN/PLLM)
  78:Core/Src/i2s.cpp ****     I2SCLK = f(PLLI2S clock output) = f(VCO clock) / PLLI2SR */
  79:Core/Src/i2s.cpp **** 
  80:Core/Src/i2s.cpp ****     rccclkinit.PeriphClockSelection = RCC_PERIPHCLK_I2S;
 228              		.loc 1 80 5 view .LVU59
 229              		.loc 1 80 37 is_stmt 0 view .LVU60
 230 0030 0123     		movs	r3, #1
 231 0032 0093     		str	r3, [sp]
  81:Core/Src/i2s.cpp ****     rccclkinit.PLLI2S.PLLI2SN = I2SPLLN[freqindex];
 232              		.loc 1 81 5 is_stmt 1 view .LVU61
 233              		.loc 1 81 50 is_stmt 0 view .LVU62
 234 0034 05F11A03 		add	r3, r5, #26
 235 0038 54F82330 		ldr	r3, [r4, r3, lsl #2]
 236              		.loc 1 81 31 view .LVU63
 237 003c 0293     		str	r3, [sp, #8]
  82:Core/Src/i2s.cpp ****     rccclkinit.PLLI2S.PLLI2SR = I2SPLLR[freqindex];
 238              		.loc 1 82 5 is_stmt 1 view .LVU64
 239              		.loc 1 82 50 is_stmt 0 view .LVU65
 240 003e 2235     		adds	r5, r5, #34
 241              	.LVL13:
 242              		.loc 1 82 50 view .LVU66
 243 0040 54F82530 		ldr	r3, [r4, r5, lsl #2]
 244              		.loc 1 82 31 view .LVU67
 245 0044 0393     		str	r3, [sp, #12]
  83:Core/Src/i2s.cpp ****     HAL_RCCEx_PeriphCLKConfig(&rccclkinit);
 246              		.loc 1 83 5 is_stmt 1 view .LVU68
 247              		.loc 1 83 30 is_stmt 0 view .LVU69
 248 0046 6846     		mov	r0, sp
 249 0048 FFF7FEFF 		bl	HAL_RCCEx_PeriphCLKConfig
 250              	.LVL14:
ARM GAS  /tmp/cctozXzN.s 			page 7


 251              	.L12:
  84:Core/Src/i2s.cpp ****     }
  85:Core/Src/i2s.cpp ****     else
  86:Core/Src/i2s.cpp ****     {
  87:Core/Src/i2s.cpp ****     /* I2S clock config
  88:Core/Src/i2s.cpp ****     PLLI2S_VCO = f(VCO clock) = f(PLLI2S clock input) × (PLLI2SN/PLLM)
  89:Core/Src/i2s.cpp ****     I2SCLK = f(PLLI2S clock output) = f(VCO clock) / PLLI2SR */
  90:Core/Src/i2s.cpp ****     rccclkinit.PeriphClockSelection = RCC_PERIPHCLK_I2S;
  91:Core/Src/i2s.cpp ****     rccclkinit.PLLI2S.PLLI2SN = 258;
  92:Core/Src/i2s.cpp ****     rccclkinit.PLLI2S.PLLI2SR = 3;
  93:Core/Src/i2s.cpp ****     HAL_RCCEx_PeriphCLKConfig(&rccclkinit);
  94:Core/Src/i2s.cpp ****     }
  95:Core/Src/i2s.cpp **** }
 252              		.loc 1 95 1 view .LVU70
 253 004c 07B0     		add	sp, sp, #28
 254              	.LCFI3:
 255              		.cfi_remember_state
 256              		.cfi_def_cfa_offset 12
 257              		@ sp needed
 258 004e 30BD     		pop	{r4, r5, pc}
 259              	.LVL15:
 260              	.L16:
 261              	.LCFI4:
 262              		.cfi_restore_state
  90:Core/Src/i2s.cpp ****     rccclkinit.PLLI2S.PLLI2SN = 258;
 263              		.loc 1 90 5 is_stmt 1 view .LVU71
  90:Core/Src/i2s.cpp ****     rccclkinit.PLLI2S.PLLI2SN = 258;
 264              		.loc 1 90 37 is_stmt 0 view .LVU72
 265 0050 0123     		movs	r3, #1
 266 0052 0093     		str	r3, [sp]
  91:Core/Src/i2s.cpp ****     rccclkinit.PLLI2S.PLLI2SR = 3;
 267              		.loc 1 91 5 is_stmt 1 view .LVU73
  91:Core/Src/i2s.cpp ****     rccclkinit.PLLI2S.PLLI2SR = 3;
 268              		.loc 1 91 31 is_stmt 0 view .LVU74
 269 0054 4FF48173 		mov	r3, #258
 270 0058 0293     		str	r3, [sp, #8]
  92:Core/Src/i2s.cpp ****     HAL_RCCEx_PeriphCLKConfig(&rccclkinit);
 271              		.loc 1 92 5 is_stmt 1 view .LVU75
  92:Core/Src/i2s.cpp ****     HAL_RCCEx_PeriphCLKConfig(&rccclkinit);
 272              		.loc 1 92 31 is_stmt 0 view .LVU76
 273 005a 0323     		movs	r3, #3
 274 005c 0393     		str	r3, [sp, #12]
  93:Core/Src/i2s.cpp ****     }
 275              		.loc 1 93 5 is_stmt 1 view .LVU77
  93:Core/Src/i2s.cpp ****     }
 276              		.loc 1 93 30 is_stmt 0 view .LVU78
 277 005e 6846     		mov	r0, sp
 278 0060 FFF7FEFF 		bl	HAL_RCCEx_PeriphCLKConfig
 279              	.LVL16:
 280              		.loc 1 95 1 view .LVU79
 281 0064 F2E7     		b	.L12
 282              		.cfi_endproc
 283              	.LFE133:
 284              		.fnend
 286              		.section	.text._ZN3i2s4initEm,"ax",%progbits
 287              		.align	1
 288              		.global	_ZN3i2s4initEm
ARM GAS  /tmp/cctozXzN.s 			page 8


 289              		.syntax unified
 290              		.thumb
 291              		.thumb_func
 292              		.fpu fpv4-sp-d16
 294              	_ZN3i2s4initEm:
 295              		.fnstart
 296              	.LVL17:
 297              	.LFB131:
  21:Core/Src/i2s.cpp ****     set_audiofreq(audioFreq);
 298              		.loc 1 21 1 is_stmt 1 view -0
 299              		.cfi_startproc
 300              		@ args = 0, pretend = 0, frame = 0
 301              		@ frame_needed = 0, uses_anonymous_args = 0
  21:Core/Src/i2s.cpp ****     set_audiofreq(audioFreq);
 302              		.loc 1 21 1 is_stmt 0 view .LVU81
 303 0000 38B5     		push	{r3, r4, r5, lr}
 304              		.save {r3, r4, r5, lr}
 305              	.LCFI5:
 306              		.cfi_def_cfa_offset 16
 307              		.cfi_offset 3, -16
 308              		.cfi_offset 4, -12
 309              		.cfi_offset 5, -8
 310              		.cfi_offset 14, -4
 311 0002 0446     		mov	r4, r0
 312 0004 0D46     		mov	r5, r1
  22:Core/Src/i2s.cpp **** 
 313              		.loc 1 22 5 is_stmt 1 view .LVU82
  22:Core/Src/i2s.cpp **** 
 314              		.loc 1 22 18 is_stmt 0 view .LVU83
 315 0006 FFF7FEFF 		bl	_ZN3i2s13set_audiofreqEm
 316              	.LVL18:
  24:Core/Src/i2s.cpp ****     if (HAL_I2S_Init(&i2sx) != HAL_OK)
 317              		.loc 1 24 5 is_stmt 1 view .LVU84
  24:Core/Src/i2s.cpp ****     if (HAL_I2S_Init(&i2sx) != HAL_OK)
 318              		.loc 1 24 21 is_stmt 0 view .LVU85
 319 000a 2946     		mov	r1, r5
 320 000c 2046     		mov	r0, r4
 321 000e FFF7FEFF 		bl	_ZN3i2s16config_pll_clockEm
 322              	.LVL19:
  25:Core/Src/i2s.cpp ****     {
 323              		.loc 1 25 5 is_stmt 1 view .LVU86
  25:Core/Src/i2s.cpp ****     {
 324              		.loc 1 25 21 is_stmt 0 view .LVU87
 325 0012 2046     		mov	r0, r4
 326 0014 FFF7FEFF 		bl	HAL_I2S_Init
 327              	.LVL20:
  29:Core/Src/i2s.cpp **** 
 328              		.loc 1 29 1 view .LVU88
 329 0018 38BD     		pop	{r3, r4, r5, pc}
  29:Core/Src/i2s.cpp **** 
 330              		.loc 1 29 1 view .LVU89
 331              		.cfi_endproc
 332              	.LFE131:
 333              		.fnend
 335              		.section	.text._ZN3i2s4playEPtm,"ax",%progbits
 336              		.align	1
 337              		.global	_ZN3i2s4playEPtm
ARM GAS  /tmp/cctozXzN.s 			page 9


 338              		.syntax unified
 339              		.thumb
 340              		.thumb_func
 341              		.fpu fpv4-sp-d16
 343              	_ZN3i2s4playEPtm:
 344              		.fnstart
 345              	.LVL21:
 346              	.LFB134:
  96:Core/Src/i2s.cpp **** 
  97:Core/Src/i2s.cpp **** void i2s::play(uint16_t* audioBuffer, uint32_t len)
  98:Core/Src/i2s.cpp **** {
 347              		.loc 1 98 1 is_stmt 1 view -0
 348              		.cfi_startproc
 349              		@ args = 0, pretend = 0, frame = 0
 350              		@ frame_needed = 0, uses_anonymous_args = 0
 351              		.loc 1 98 1 is_stmt 0 view .LVU91
 352 0000 08B5     		push	{r3, lr}
 353              		.save {r3, lr}
 354              	.LCFI6:
 355              		.cfi_def_cfa_offset 8
 356              		.cfi_offset 3, -8
 357              		.cfi_offset 14, -4
  99:Core/Src/i2s.cpp ****     HAL_I2S_Transmit_DMA(&i2sx, audioBuffer, DMA_MAX(len/AUDIODATA_SIZE));
 358              		.loc 1 99 5 is_stmt 1 view .LVU92
 359              		.loc 1 99 25 is_stmt 0 view .LVU93
 360 0002 B2F5003F 		cmp	r2, #131072
 361 0006 04D2     		bcs	.L24
 362              		.loc 1 99 25 discriminator 1 view .LVU94
 363 0008 C2F34F02 		ubfx	r2, r2, #1, #16
 364              	.LVL22:
 365              	.L23:
 366              		.loc 1 99 25 discriminator 4 view .LVU95
 367 000c FFF7FEFF 		bl	HAL_I2S_Transmit_DMA
 368              	.LVL23:
 100:Core/Src/i2s.cpp **** }
 369              		.loc 1 100 1 discriminator 4 view .LVU96
 370 0010 08BD     		pop	{r3, pc}
 371              	.LVL24:
 372              	.L24:
  99:Core/Src/i2s.cpp ****     HAL_I2S_Transmit_DMA(&i2sx, audioBuffer, DMA_MAX(len/AUDIODATA_SIZE));
 373              		.loc 1 99 25 view .LVU97
 374 0012 4FF6FF72 		movw	r2, #65535
 375              	.LVL25:
  99:Core/Src/i2s.cpp ****     HAL_I2S_Transmit_DMA(&i2sx, audioBuffer, DMA_MAX(len/AUDIODATA_SIZE));
 376              		.loc 1 99 25 view .LVU98
 377 0016 F9E7     		b	.L23
 378              		.cfi_endproc
 379              	.LFE134:
 380              		.fnend
 382              		.section	.text._ZN3i2s13change_bufferEPtm,"ax",%progbits
 383              		.align	1
 384              		.global	_ZN3i2s13change_bufferEPtm
 385              		.syntax unified
 386              		.thumb
 387              		.thumb_func
 388              		.fpu fpv4-sp-d16
 390              	_ZN3i2s13change_bufferEPtm:
ARM GAS  /tmp/cctozXzN.s 			page 10


 391              		.fnstart
 392              	.LVL26:
 393              	.LFB135:
 101:Core/Src/i2s.cpp **** 
 102:Core/Src/i2s.cpp **** void i2s::change_buffer(uint16_t* audioBuffer, uint32_t len)
 103:Core/Src/i2s.cpp **** {
 394              		.loc 1 103 1 is_stmt 1 view -0
 395              		.cfi_startproc
 396              		@ args = 0, pretend = 0, frame = 0
 397              		@ frame_needed = 0, uses_anonymous_args = 0
 398              		.loc 1 103 1 is_stmt 0 view .LVU100
 399 0000 08B5     		push	{r3, lr}
 400              		.save {r3, lr}
 401              	.LCFI7:
 402              		.cfi_def_cfa_offset 8
 403              		.cfi_offset 3, -8
 404              		.cfi_offset 14, -4
 104:Core/Src/i2s.cpp ****     HAL_I2S_Transmit_DMA(&i2sx, audioBuffer, DMA_MAX(len));
 405              		.loc 1 104 5 is_stmt 1 view .LVU101
 406              		.loc 1 104 46 is_stmt 0 view .LVU102
 407 0002 4FF6FF73 		movw	r3, #65535
 408 0006 9A42     		cmp	r2, r3
 409 0008 28BF     		it	cs
 410 000a 1A46     		movcs	r2, r3
 411              	.LVL27:
 412              		.loc 1 104 25 view .LVU103
 413 000c 92B2     		uxth	r2, r2
 414 000e FFF7FEFF 		bl	HAL_I2S_Transmit_DMA
 415              	.LVL28:
 105:Core/Src/i2s.cpp ****     //TODO:Understand what is going on here
 106:Core/Src/i2s.cpp ****     //For now it is just copied from an example
 107:Core/Src/i2s.cpp **** }
 416              		.loc 1 107 1 view .LVU104
 417 0012 08BD     		pop	{r3, pc}
 418              		.cfi_endproc
 419              	.LFE135:
 420              		.fnend
 422              		.section	.text._ZN3i2s5pauseEv,"ax",%progbits
 423              		.align	1
 424              		.global	_ZN3i2s5pauseEv
 425              		.syntax unified
 426              		.thumb
 427              		.thumb_func
 428              		.fpu fpv4-sp-d16
 430              	_ZN3i2s5pauseEv:
 431              		.fnstart
 432              	.LVL29:
 433              	.LFB136:
 108:Core/Src/i2s.cpp **** 
 109:Core/Src/i2s.cpp **** void i2s::pause()
 110:Core/Src/i2s.cpp **** {
 434              		.loc 1 110 1 is_stmt 1 view -0
 435              		.cfi_startproc
 436              		@ args = 0, pretend = 0, frame = 0
 437              		@ frame_needed = 0, uses_anonymous_args = 0
 438              		.loc 1 110 1 is_stmt 0 view .LVU106
 439 0000 08B5     		push	{r3, lr}
ARM GAS  /tmp/cctozXzN.s 			page 11


 440              		.save {r3, lr}
 441              	.LCFI8:
 442              		.cfi_def_cfa_offset 8
 443              		.cfi_offset 3, -8
 444              		.cfi_offset 14, -4
 111:Core/Src/i2s.cpp ****     HAL_I2S_DMAPause(&i2sx);
 445              		.loc 1 111 5 is_stmt 1 view .LVU107
 446              		.loc 1 111 21 is_stmt 0 view .LVU108
 447 0002 FFF7FEFF 		bl	HAL_I2S_DMAPause
 448              	.LVL30:
 112:Core/Src/i2s.cpp **** }
 449              		.loc 1 112 1 view .LVU109
 450 0006 08BD     		pop	{r3, pc}
 451              		.cfi_endproc
 452              	.LFE136:
 453              		.fnend
 455              		.section	.text._ZN3i2s4stopEv,"ax",%progbits
 456              		.align	1
 457              		.global	_ZN3i2s4stopEv
 458              		.syntax unified
 459              		.thumb
 460              		.thumb_func
 461              		.fpu fpv4-sp-d16
 463              	_ZN3i2s4stopEv:
 464              		.fnstart
 465              	.LVL31:
 466              	.LFB137:
 113:Core/Src/i2s.cpp **** void i2s::stop()
 114:Core/Src/i2s.cpp **** {
 467              		.loc 1 114 1 is_stmt 1 view -0
 468              		.cfi_startproc
 469              		@ args = 0, pretend = 0, frame = 0
 470              		@ frame_needed = 0, uses_anonymous_args = 0
 471              		.loc 1 114 1 is_stmt 0 view .LVU111
 472 0000 08B5     		push	{r3, lr}
 473              		.save {r3, lr}
 474              	.LCFI9:
 475              		.cfi_def_cfa_offset 8
 476              		.cfi_offset 3, -8
 477              		.cfi_offset 14, -4
 115:Core/Src/i2s.cpp ****     HAL_I2S_DMAStop(&i2sx);
 478              		.loc 1 115 5 is_stmt 1 view .LVU112
 479              		.loc 1 115 20 is_stmt 0 view .LVU113
 480 0002 FFF7FEFF 		bl	HAL_I2S_DMAStop
 481              	.LVL32:
 116:Core/Src/i2s.cpp **** }
 482              		.loc 1 116 1 view .LVU114
 483 0006 08BD     		pop	{r3, pc}
 484              		.cfi_endproc
 485              	.LFE137:
 486              		.fnend
 488              		.section	.text._ZN3i2s13error_handlerEv,"ax",%progbits
 489              		.align	1
 490              		.global	_ZN3i2s13error_handlerEv
 491              		.syntax unified
 492              		.thumb
 493              		.thumb_func
ARM GAS  /tmp/cctozXzN.s 			page 12


 494              		.fpu fpv4-sp-d16
 496              	_ZN3i2s13error_handlerEv:
 497              		.fnstart
 498              	.LVL33:
 499              	.LFB138:
 117:Core/Src/i2s.cpp **** void i2s::error_handler()
 118:Core/Src/i2s.cpp **** {
 500              		.loc 1 118 1 is_stmt 1 view -0
 501              		.cfi_startproc
 502              		@ args = 0, pretend = 0, frame = 0
 503              		@ frame_needed = 0, uses_anonymous_args = 0
 504              		@ link register save eliminated.
 119:Core/Src/i2s.cpp ****     
 120:Core/Src/i2s.cpp **** }
 505              		.loc 1 120 1 is_stmt 0 view .LVU116
 506 0000 7047     		bx	lr
 507              		.cfi_endproc
 508              	.LFE138:
 509              		.cantunwind
 510              		.fnend
 512              		.text
 513              	.Letext0:
 514              		.file 2 "/usr/lib/gcc/arm-none-eabi/9.2.1/include/stdint.h"
 515              		.file 3 "Drivers/CMSIS/Include/core_cm4.h"
 516              		.file 4 "Drivers/CMSIS/Device/ST/STM32F4xx/Include/system_stm32f4xx.h"
 517              		.file 5 "Drivers/CMSIS/Device/ST/STM32F4xx/Include/stm32f411xe.h"
 518              		.file 6 "Drivers/STM32F4xx_HAL_Driver/Inc/stm32f4xx_hal_def.h"
 519              		.file 7 "Drivers/STM32F4xx_HAL_Driver/Inc/stm32f4xx_hal_rcc_ex.h"
 520              		.file 8 "Drivers/STM32F4xx_HAL_Driver/Inc/stm32f4xx_hal_dma.h"
 521              		.file 9 "Drivers/STM32F4xx_HAL_Driver/Inc/stm32f4xx_hal_i2s.h"
 522              		.file 10 "Drivers/STM32F4xx_HAL_Driver/Inc/stm32f4xx_hal.h"
 523              		.file 11 "Core/Inc/i2s.hpp"
ARM GAS  /tmp/cctozXzN.s 			page 13

