ARM GAS  /tmp/cc3KnxAA.s 			page 1


   1              		.cpu cortex-m4
   2              		.eabi_attribute 27, 1
   3              		.eabi_attribute 28, 1
   4              		.eabi_attribute 20, 1
   5              		.eabi_attribute 21, 1
   6              		.eabi_attribute 23, 3
   7              		.eabi_attribute 24, 1
   8              		.eabi_attribute 25, 1
   9              		.eabi_attribute 26, 1
  10              		.eabi_attribute 30, 1
  11              		.eabi_attribute 34, 1
  12              		.eabi_attribute 18, 4
  13              		.file	"sa818.cpp"
  14              		.text
  15              	.Ltext0:
  16              		.cfi_sections	.debug_frame
  17              		.section	.text._Z41__static_initialization_and_destruction_0ii,"ax",%progbits
  18              		.align	1
  19              		.arch armv7e-m
  20              		.syntax unified
  21              		.thumb
  22              		.thumb_func
  23              		.fpu fpv4-sp-d16
  25              	_Z41__static_initialization_and_destruction_0ii:
  26              		.fnstart
  27              	.LVL0:
  28              	.LFB2473:
  29              		.file 1 "Core/Src/sa818.cpp"
   1:Core/Src/sa818.cpp **** #include "stdio.h"
   2:Core/Src/sa818.cpp **** #include "string.h"
   3:Core/Src/sa818.cpp **** #include "stdarg.h"
   4:Core/Src/sa818.cpp **** #include "sa818.h"
   5:Core/Src/sa818.cpp **** 
   6:Core/Src/sa818.cpp **** 
   7:Core/Src/sa818.cpp **** const unsigned char CMD_HAND[15]={0x41,0x54,0x2B,0x44,0x4D,0x4F,0x43,0x4F,0x4E,0x4E,0x45,0x43,0x54,
   8:Core/Src/sa818.cpp **** unsigned char CMD_SET[15]={0x41,0x54,0x2b,0x44,0x4d,0x4f,0x53,0x45,0x54,0x47,0x52,0x4f,0x55,0x50,0x
   9:Core/Src/sa818.cpp **** unsigned char CMD_VOLUME[16]={0x41,0x54,0x2B,0x44,0x4D,0x4F,0x53,0x45,0x54,0x56,0x4f,0x4c,0x55,0x4d
  10:Core/Src/sa818.cpp **** unsigned char expected_rx[30]={0};
  11:Core/Src/sa818.cpp **** unsigned char len_txnow;
  12:Core/Src/sa818.cpp **** unsigned char len_rxnow;
  13:Core/Src/sa818.cpp **** unsigned char status_cnt = 2;
  14:Core/Src/sa818.cpp **** UART_HandleTypeDef* USART;
  15:Core/Src/sa818.cpp **** unsigned char tx_buf[50]={0};
  16:Core/Src/sa818.cpp **** unsigned char rx_buf[30]={0};
  17:Core/Src/sa818.cpp **** uint8_t locked=0; //Look on sending the next command
  18:Core/Src/sa818.cpp **** unsigned char tx_len;
  19:Core/Src/sa818.cpp **** unsigned char rx_len;
  20:Core/Src/sa818.cpp **** 
  21:Core/Src/sa818.cpp **** 
  22:Core/Src/sa818.cpp **** 
  23:Core/Src/sa818.cpp **** void sa818::sa818_power(OnOff on)
  24:Core/Src/sa818.cpp **** {
  25:Core/Src/sa818.cpp ****     if(on)
  26:Core/Src/sa818.cpp ****         pin_pd->write(pin::on);
  27:Core/Src/sa818.cpp ****     else
  28:Core/Src/sa818.cpp ****         pin_pd->write(pin::off);
  29:Core/Src/sa818.cpp **** }
ARM GAS  /tmp/cc3KnxAA.s 			page 2


  30:Core/Src/sa818.cpp **** void sa818::sa818_txrx_mode(TxRx mode)
  31:Core/Src/sa818.cpp **** {
  32:Core/Src/sa818.cpp ****     if(mode)
  33:Core/Src/sa818.cpp ****         pin_ptt->write(pin::on);
  34:Core/Src/sa818.cpp ****     else
  35:Core/Src/sa818.cpp ****         pin_ptt->write(pin::off);
  36:Core/Src/sa818.cpp ****     
  37:Core/Src/sa818.cpp **** }
  38:Core/Src/sa818.cpp **** 
  39:Core/Src/sa818.cpp **** sa818::sa818(uart* uartx_, pin* pin_pd_, pin* pin_ptt_)
  40:Core/Src/sa818.cpp **** 
  41:Core/Src/sa818.cpp **** {
  42:Core/Src/sa818.cpp ****     pin_pd=pin_pd_;
  43:Core/Src/sa818.cpp ****     pin_ptt=pin_ptt_;
  44:Core/Src/sa818.cpp ****     uartx=uartx_;
  45:Core/Src/sa818.cpp **** 
  46:Core/Src/sa818.cpp ****     // while(locked!=0);
  47:Core/Src/sa818.cpp ****     // locked=1;
  48:Core/Src/sa818.cpp ****     sa818_power(on);//Power on the module
  49:Core/Src/sa818.cpp ****     //HAL_Delay(400);//Delay here is important to give some time for the module to wake up
  50:Core/Src/sa818.cpp ****     //TODO: maybe use something more efficient in the future.
  51:Core/Src/sa818.cpp ****     sa818_txrx_mode(rx);//Force the module to transmit
  52:Core/Src/sa818.cpp **** 
  53:Core/Src/sa818.cpp ****     sprintf((char *)tx_buf,"AT+DMOCONNECT\r\n");
  54:Core/Src/sa818.cpp ****     tx_len=20;
  55:Core/Src/sa818.cpp ****     rx_len=16;
  56:Core/Src/sa818.cpp ****     uartx->send_recive((char*) tx_buf,"+DMOCONNECT:0\r\n");
  57:Core/Src/sa818.cpp **** 
  58:Core/Src/sa818.cpp **** }
  59:Core/Src/sa818.cpp **** 
  60:Core/Src/sa818.cpp **** void sa818::sa818_configure(uint8_t bw, char* tx_f, char* rx_f, char* tx_subaudio, uint8_t SQ, char
  61:Core/Src/sa818.cpp **** {
  62:Core/Src/sa818.cpp ****     // while(locked!=0);
  63:Core/Src/sa818.cpp ****     // locked=1;
  64:Core/Src/sa818.cpp ****     HAL_Delay(1000);
  65:Core/Src/sa818.cpp **** 
  66:Core/Src/sa818.cpp ****     sprintf((char *)tx_buf,"AT+DMOSETGROUP=%i,%s,%s,%s,%i,%s\r\n",bw,tx_f,rx_f,tx_subaudio,SQ, Rx_s
  67:Core/Src/sa818.cpp ****     tx_len=50;
  68:Core/Src/sa818.cpp ****     rx_len=16;
  69:Core/Src/sa818.cpp ****     uartx->send_recive((char*) tx_buf,"+DMOCONNECT:0\r\n");
  70:Core/Src/sa818.cpp **** }
  71:Core/Src/sa818.cpp **** 
  72:Core/Src/sa818.cpp **** void sa818::sa818_set_volume(uint8_t vol)
  73:Core/Src/sa818.cpp **** {
  74:Core/Src/sa818.cpp ****     // while(locked!=0);
  75:Core/Src/sa818.cpp ****     // locked=1;
  76:Core/Src/sa818.cpp ****     sprintf((char *)tx_buf,"AT+DMOSETVOLUME=%i\r\n",vol);
  77:Core/Src/sa818.cpp ****     tx_len=20;
  78:Core/Src/sa818.cpp ****     rx_len=16;
  79:Core/Src/sa818.cpp **** 
  80:Core/Src/sa818.cpp ****     uartx->send_recive((char*) tx_buf,"+DMOCONNECT:0\r\n");
  81:Core/Src/sa818.cpp **** 
  82:Core/Src/sa818.cpp **** 
  83:Core/Src/sa818.cpp **** }
  84:Core/Src/sa818.cpp **** void sa818::sa818_get_RSSI()
  85:Core/Src/sa818.cpp **** {
  86:Core/Src/sa818.cpp **** 
ARM GAS  /tmp/cc3KnxAA.s 			page 3


  87:Core/Src/sa818.cpp ****     sprintf((char *)tx_buf,"RSSI?\r\n");
  88:Core/Src/sa818.cpp ****     tx_len=7;
  89:Core/Src/sa818.cpp ****     rx_len=10;
  90:Core/Src/sa818.cpp ****     uartx->send_recive((char*) tx_buf,"+DMOCONNECT:0\r\n");
  91:Core/Src/sa818.cpp **** 
  92:Core/Src/sa818.cpp **** }
  93:Core/Src/sa818.cpp **** void sa818::sa818_set_tail(uint8_t x)
  94:Core/Src/sa818.cpp **** {
  95:Core/Src/sa818.cpp ****     sprintf((char *)tx_buf,"AT+SETTAIL=%i\r\n",x);
  96:Core/Src/sa818.cpp ****     tx_len=14;
  97:Core/Src/sa818.cpp ****     rx_len=16;
  98:Core/Src/sa818.cpp **** 
  99:Core/Src/sa818.cpp ****     uartx->send_recive((char*) tx_buf,"+DMOSETTAIL: 0\r\n");
 100:Core/Src/sa818.cpp **** 
 101:Core/Src/sa818.cpp **** }
 102:Core/Src/sa818.cpp **** //TODO implement the handle to check on the recieved message
 103:Core/Src/sa818.cpp **** char* sa818::sa818_recieve_message(uint8_t count)
 104:Core/Src/sa818.cpp **** {
 105:Core/Src/sa818.cpp ****     return 0;
 106:Core/Src/sa818.cpp **** }...
  30              		.loc 1 106 1 view -0
  31              		.cfi_startproc
  32              		@ args = 0, pretend = 0, frame = 0
  33              		@ frame_needed = 0, uses_anonymous_args = 0
  34              		.loc 1 106 1 is_stmt 0 view .LVU1
  35 0000 0128     		cmp	r0, #1
  36 0002 00D0     		beq	.L7
  37              	.L4:
  38 0004 7047     		bx	lr
  39              	.L7:
  40              		.loc 1 106 1 discriminator 1 view .LVU2
  41 0006 4FF6FF73 		movw	r3, #65535
  42 000a 9942     		cmp	r1, r3
  43 000c FAD1     		bne	.L4
  44              		.loc 1 106 1 view .LVU3
  45 000e 10B5     		push	{r4, lr}
  46              	.LCFI0:
  47              		.cfi_def_cfa_offset 8
  48              		.cfi_offset 4, -8
  49              		.cfi_offset 14, -4
  50              		.file 2 "/usr/include/newlib/c++/9.2.1/iostream"
   1:/usr/include/newlib/c++/9.2.1/iostream **** // Standard iostream objects -*- C++ -*-
   2:/usr/include/newlib/c++/9.2.1/iostream **** 
   3:/usr/include/newlib/c++/9.2.1/iostream **** // Copyright (C) 1997-2019 Free Software Foundation, Inc.
   4:/usr/include/newlib/c++/9.2.1/iostream **** //
   5:/usr/include/newlib/c++/9.2.1/iostream **** // This file is part of the GNU ISO C++ Library.  This library is free
   6:/usr/include/newlib/c++/9.2.1/iostream **** // software; you can redistribute it and/or modify it under the
   7:/usr/include/newlib/c++/9.2.1/iostream **** // terms of the GNU General Public License as published by the
   8:/usr/include/newlib/c++/9.2.1/iostream **** // Free Software Foundation; either version 3, or (at your option)
   9:/usr/include/newlib/c++/9.2.1/iostream **** // any later version.
  10:/usr/include/newlib/c++/9.2.1/iostream **** 
  11:/usr/include/newlib/c++/9.2.1/iostream **** // This library is distributed in the hope that it will be useful,
  12:/usr/include/newlib/c++/9.2.1/iostream **** // but WITHOUT ANY WARRANTY; without even the implied warranty of
  13:/usr/include/newlib/c++/9.2.1/iostream **** // MERCHANTABILITY or FITNESS FOR A PARTICULAR PURPOSE.  See the
  14:/usr/include/newlib/c++/9.2.1/iostream **** // GNU General Public License for more details.
  15:/usr/include/newlib/c++/9.2.1/iostream **** 
  16:/usr/include/newlib/c++/9.2.1/iostream **** // Under Section 7 of GPL version 3, you are granted additional
ARM GAS  /tmp/cc3KnxAA.s 			page 4


  17:/usr/include/newlib/c++/9.2.1/iostream **** // permissions described in the GCC Runtime Library Exception, version
  18:/usr/include/newlib/c++/9.2.1/iostream **** // 3.1, as published by the Free Software Foundation.
  19:/usr/include/newlib/c++/9.2.1/iostream **** 
  20:/usr/include/newlib/c++/9.2.1/iostream **** // You should have received a copy of the GNU General Public License and
  21:/usr/include/newlib/c++/9.2.1/iostream **** // a copy of the GCC Runtime Library Exception along with this program;
  22:/usr/include/newlib/c++/9.2.1/iostream **** // see the files COPYING3 and COPYING.RUNTIME respectively.  If not, see
  23:/usr/include/newlib/c++/9.2.1/iostream **** // <http://www.gnu.org/licenses/>.
  24:/usr/include/newlib/c++/9.2.1/iostream **** 
  25:/usr/include/newlib/c++/9.2.1/iostream **** /** @file include/iostream
  26:/usr/include/newlib/c++/9.2.1/iostream ****  *  This is a Standard C++ Library header.
  27:/usr/include/newlib/c++/9.2.1/iostream ****  */
  28:/usr/include/newlib/c++/9.2.1/iostream **** 
  29:/usr/include/newlib/c++/9.2.1/iostream **** //
  30:/usr/include/newlib/c++/9.2.1/iostream **** // ISO C++ 14882: 27.3  Standard iostream objects
  31:/usr/include/newlib/c++/9.2.1/iostream **** //
  32:/usr/include/newlib/c++/9.2.1/iostream **** 
  33:/usr/include/newlib/c++/9.2.1/iostream **** #ifndef _GLIBCXX_IOSTREAM
  34:/usr/include/newlib/c++/9.2.1/iostream **** #define _GLIBCXX_IOSTREAM 1
  35:/usr/include/newlib/c++/9.2.1/iostream **** 
  36:/usr/include/newlib/c++/9.2.1/iostream **** #pragma GCC system_header
  37:/usr/include/newlib/c++/9.2.1/iostream **** 
  38:/usr/include/newlib/c++/9.2.1/iostream **** #include <bits/c++config.h>
  39:/usr/include/newlib/c++/9.2.1/iostream **** #include <ostream>
  40:/usr/include/newlib/c++/9.2.1/iostream **** #include <istream>
  41:/usr/include/newlib/c++/9.2.1/iostream **** 
  42:/usr/include/newlib/c++/9.2.1/iostream **** namespace std _GLIBCXX_VISIBILITY(default)
  43:/usr/include/newlib/c++/9.2.1/iostream **** {
  44:/usr/include/newlib/c++/9.2.1/iostream **** _GLIBCXX_BEGIN_NAMESPACE_VERSION
  45:/usr/include/newlib/c++/9.2.1/iostream **** 
  46:/usr/include/newlib/c++/9.2.1/iostream ****   /**
  47:/usr/include/newlib/c++/9.2.1/iostream ****    *  @name Standard Stream Objects
  48:/usr/include/newlib/c++/9.2.1/iostream ****    *
  49:/usr/include/newlib/c++/9.2.1/iostream ****    *  The &lt;iostream&gt; header declares the eight <em>standard stream
  50:/usr/include/newlib/c++/9.2.1/iostream ****    *  objects</em>.  For other declarations, see
  51:/usr/include/newlib/c++/9.2.1/iostream ****    *  http://gcc.gnu.org/onlinedocs/libstdc++/manual/io.html
  52:/usr/include/newlib/c++/9.2.1/iostream ****    *  and the @link iosfwd I/O forward declarations @endlink
  53:/usr/include/newlib/c++/9.2.1/iostream ****    *
  54:/usr/include/newlib/c++/9.2.1/iostream ****    *  They are required by default to cooperate with the global C
  55:/usr/include/newlib/c++/9.2.1/iostream ****    *  library's @c FILE streams, and to be available during program
  56:/usr/include/newlib/c++/9.2.1/iostream ****    *  startup and termination. For more information, see the section of the
  57:/usr/include/newlib/c++/9.2.1/iostream ****    *  manual linked to above.
  58:/usr/include/newlib/c++/9.2.1/iostream ****   */
  59:/usr/include/newlib/c++/9.2.1/iostream ****   //@{
  60:/usr/include/newlib/c++/9.2.1/iostream ****   extern istream cin;		/// Linked to standard input
  61:/usr/include/newlib/c++/9.2.1/iostream ****   extern ostream cout;		/// Linked to standard output
  62:/usr/include/newlib/c++/9.2.1/iostream ****   extern ostream cerr;		/// Linked to standard error (unbuffered)
  63:/usr/include/newlib/c++/9.2.1/iostream ****   extern ostream clog;		/// Linked to standard error (buffered)
  64:/usr/include/newlib/c++/9.2.1/iostream **** 
  65:/usr/include/newlib/c++/9.2.1/iostream **** #ifdef _GLIBCXX_USE_WCHAR_T
  66:/usr/include/newlib/c++/9.2.1/iostream ****   extern wistream wcin;		/// Linked to standard input
  67:/usr/include/newlib/c++/9.2.1/iostream ****   extern wostream wcout;	/// Linked to standard output
  68:/usr/include/newlib/c++/9.2.1/iostream ****   extern wostream wcerr;	/// Linked to standard error (unbuffered)
  69:/usr/include/newlib/c++/9.2.1/iostream ****   extern wostream wclog;	/// Linked to standard error (buffered)
  70:/usr/include/newlib/c++/9.2.1/iostream **** #endif
  71:/usr/include/newlib/c++/9.2.1/iostream ****   //@}
  72:/usr/include/newlib/c++/9.2.1/iostream **** 
  73:/usr/include/newlib/c++/9.2.1/iostream ****   // For construction of filebuffers for cout, cin, cerr, clog et. al.
ARM GAS  /tmp/cc3KnxAA.s 			page 5


  74:/usr/include/newlib/c++/9.2.1/iostream ****   static ios_base::Init __ioinit;
  51              		.loc 2 74 25 view .LVU4
  52 0010 044C     		ldr	r4, .L8
  53 0012 2046     		mov	r0, r4
  54              	.LVL1:
  55              		.loc 2 74 25 view .LVU5
  56 0014 FFF7FEFF 		bl	_ZNSt8ios_base4InitC1Ev
  57              	.LVL2:
  58              		.loc 2 74 25 view .LVU6
  59 0018 034A     		ldr	r2, .L8+4
  60 001a 0449     		ldr	r1, .L8+8
  61 001c 2046     		mov	r0, r4
  62 001e FFF7FEFF 		bl	__aeabi_atexit
  63              	.LVL3:
  64              		.loc 1 106 1 view .LVU7
  65 0022 10BD     		pop	{r4, pc}
  66              	.L9:
  67              		.align	2
  68              	.L8:
  69 0024 00000000 		.word	.LANCHOR0
  70 0028 00000000 		.word	__dso_handle
  71 002c 00000000 		.word	_ZNSt8ios_base4InitD1Ev
  72              		.cfi_endproc
  73              	.LFE2473:
  74              		.cantunwind
  75              		.fnend
  77              		.section	.text._ZN5sa81811sa818_powerENS_5OnOffE,"ax",%progbits
  78              		.align	1
  79              		.global	_ZN5sa81811sa818_powerENS_5OnOffE
  80              		.syntax unified
  81              		.thumb
  82              		.thumb_func
  83              		.fpu fpv4-sp-d16
  85              	_ZN5sa81811sa818_powerENS_5OnOffE:
  86              		.fnstart
  87              	.LVL4:
  88              	.LFB1984:
  24:Core/Src/sa818.cpp **** {
  89              		.loc 1 24 1 is_stmt 1 view -0
  90              		.cfi_startproc
  91              		@ args = 0, pretend = 0, frame = 0
  92              		@ frame_needed = 0, uses_anonymous_args = 0
  24:Core/Src/sa818.cpp **** {
  93              		.loc 1 24 1 is_stmt 0 view .LVU9
  94 0000 08B5     		push	{r3, lr}
  95              		.save {r3, lr}
  96              	.LCFI1:
  97              		.cfi_def_cfa_offset 8
  98              		.cfi_offset 3, -8
  99              		.cfi_offset 14, -4
  25:Core/Src/sa818.cpp ****     if(on)
 100              		.loc 1 25 5 is_stmt 1 view .LVU10
 101 0002 21B1     		cbz	r1, .L11
  26:Core/Src/sa818.cpp ****         pin_pd->write(pin::on);
 102              		.loc 1 26 9 view .LVU11
  26:Core/Src/sa818.cpp ****         pin_pd->write(pin::on);
 103              		.loc 1 26 22 is_stmt 0 view .LVU12
ARM GAS  /tmp/cc3KnxAA.s 			page 6


 104 0004 0121     		movs	r1, #1
 105              	.LVL5:
  26:Core/Src/sa818.cpp ****         pin_pd->write(pin::on);
 106              		.loc 1 26 22 view .LVU13
 107 0006 406D     		ldr	r0, [r0, #84]
 108              	.LVL6:
  26:Core/Src/sa818.cpp ****         pin_pd->write(pin::on);
 109              		.loc 1 26 22 view .LVU14
 110 0008 FFF7FEFF 		bl	_ZN3pin5writeENS_5OnOffE
 111              	.LVL7:
 112              	.L10:
  29:Core/Src/sa818.cpp **** }
 113              		.loc 1 29 1 view .LVU15
 114 000c 08BD     		pop	{r3, pc}
 115              	.LVL8:
 116              	.L11:
  28:Core/Src/sa818.cpp ****         pin_pd->write(pin::off);
 117              		.loc 1 28 9 is_stmt 1 view .LVU16
  28:Core/Src/sa818.cpp ****         pin_pd->write(pin::off);
 118              		.loc 1 28 22 is_stmt 0 view .LVU17
 119 000e 0021     		movs	r1, #0
 120              	.LVL9:
  28:Core/Src/sa818.cpp ****         pin_pd->write(pin::off);
 121              		.loc 1 28 22 view .LVU18
 122 0010 406D     		ldr	r0, [r0, #84]
 123              	.LVL10:
  28:Core/Src/sa818.cpp ****         pin_pd->write(pin::off);
 124              		.loc 1 28 22 view .LVU19
 125 0012 FFF7FEFF 		bl	_ZN3pin5writeENS_5OnOffE
 126              	.LVL11:
  29:Core/Src/sa818.cpp **** }
 127              		.loc 1 29 1 view .LVU20
 128 0016 F9E7     		b	.L10
 129              		.cfi_endproc
 130              	.LFE1984:
 131              		.fnend
 133              		.section	.text._ZN5sa81815sa818_txrx_modeENS_4TxRxE,"ax",%progbits
 134              		.align	1
 135              		.global	_ZN5sa81815sa818_txrx_modeENS_4TxRxE
 136              		.syntax unified
 137              		.thumb
 138              		.thumb_func
 139              		.fpu fpv4-sp-d16
 141              	_ZN5sa81815sa818_txrx_modeENS_4TxRxE:
 142              		.fnstart
 143              	.LVL12:
 144              	.LFB1985:
  31:Core/Src/sa818.cpp **** {
 145              		.loc 1 31 1 is_stmt 1 view -0
 146              		.cfi_startproc
 147              		@ args = 0, pretend = 0, frame = 0
 148              		@ frame_needed = 0, uses_anonymous_args = 0
  31:Core/Src/sa818.cpp **** {
 149              		.loc 1 31 1 is_stmt 0 view .LVU22
 150 0000 08B5     		push	{r3, lr}
 151              		.save {r3, lr}
 152              	.LCFI2:
ARM GAS  /tmp/cc3KnxAA.s 			page 7


 153              		.cfi_def_cfa_offset 8
 154              		.cfi_offset 3, -8
 155              		.cfi_offset 14, -4
  32:Core/Src/sa818.cpp ****     if(mode)
 156              		.loc 1 32 5 is_stmt 1 view .LVU23
 157 0002 21B1     		cbz	r1, .L15
  33:Core/Src/sa818.cpp ****         pin_ptt->write(pin::on);
 158              		.loc 1 33 9 view .LVU24
  33:Core/Src/sa818.cpp ****         pin_ptt->write(pin::on);
 159              		.loc 1 33 23 is_stmt 0 view .LVU25
 160 0004 0121     		movs	r1, #1
 161              	.LVL13:
  33:Core/Src/sa818.cpp ****         pin_ptt->write(pin::on);
 162              		.loc 1 33 23 view .LVU26
 163 0006 806D     		ldr	r0, [r0, #88]
 164              	.LVL14:
  33:Core/Src/sa818.cpp ****         pin_ptt->write(pin::on);
 165              		.loc 1 33 23 view .LVU27
 166 0008 FFF7FEFF 		bl	_ZN3pin5writeENS_5OnOffE
 167              	.LVL15:
 168              	.L14:
  37:Core/Src/sa818.cpp **** }
 169              		.loc 1 37 1 view .LVU28
 170 000c 08BD     		pop	{r3, pc}
 171              	.LVL16:
 172              	.L15:
  35:Core/Src/sa818.cpp ****         pin_ptt->write(pin::off);
 173              		.loc 1 35 9 is_stmt 1 view .LVU29
  35:Core/Src/sa818.cpp ****         pin_ptt->write(pin::off);
 174              		.loc 1 35 23 is_stmt 0 view .LVU30
 175 000e 0021     		movs	r1, #0
 176              	.LVL17:
  35:Core/Src/sa818.cpp ****         pin_ptt->write(pin::off);
 177              		.loc 1 35 23 view .LVU31
 178 0010 806D     		ldr	r0, [r0, #88]
 179              	.LVL18:
  35:Core/Src/sa818.cpp ****         pin_ptt->write(pin::off);
 180              		.loc 1 35 23 view .LVU32
 181 0012 FFF7FEFF 		bl	_ZN3pin5writeENS_5OnOffE
 182              	.LVL19:
  37:Core/Src/sa818.cpp **** }
 183              		.loc 1 37 1 view .LVU33
 184 0016 F9E7     		b	.L14
 185              		.cfi_endproc
 186              	.LFE1985:
 187              		.fnend
 189              		.section	.rodata._ZN5sa818C2EP4uartP3pinS3_.str1.4,"aMS",%progbits,1
 190              		.align	2
 191              	.LC0:
 192 0000 41542B44 		.ascii	"AT+DMOCONNECT\015\012\000"
 192      4D4F434F 
 192      4E4E4543 
 192      540D0A00 
 193              		.align	2
 194              	.LC1:
 195 0010 2B444D4F 		.ascii	"+DMOCONNECT:0\015\012\000"
 195      434F4E4E 
ARM GAS  /tmp/cc3KnxAA.s 			page 8


 195      4543543A 
 195      300D0A00 
 196              		.section	.text._ZN5sa818C2EP4uartP3pinS3_,"ax",%progbits
 197              		.align	1
 198              		.global	_ZN5sa818C2EP4uartP3pinS3_
 199              		.syntax unified
 200              		.thumb
 201              		.thumb_func
 202              		.fpu fpv4-sp-d16
 204              	_ZN5sa818C2EP4uartP3pinS3_:
 205              		.fnstart
 206              	.LVL20:
 207              	.LFB1987:
  39:Core/Src/sa818.cpp **** sa818::sa818(uart* uartx_, pin* pin_pd_, pin* pin_ptt_)
 208              		.loc 1 39 1 is_stmt 1 view -0
 209              		.cfi_startproc
 210              		@ args = 0, pretend = 0, frame = 0
 211              		@ frame_needed = 0, uses_anonymous_args = 0
  39:Core/Src/sa818.cpp **** sa818::sa818(uart* uartx_, pin* pin_pd_, pin* pin_ptt_)
 212              		.loc 1 39 1 is_stmt 0 view .LVU35
 213 0000 38B5     		push	{r3, r4, r5, lr}
 214              		.save {r3, r4, r5, lr}
 215              	.LCFI3:
 216              		.cfi_def_cfa_offset 16
 217              		.cfi_offset 3, -16
 218              		.cfi_offset 4, -12
 219              		.cfi_offset 5, -8
 220              		.cfi_offset 14, -4
 221 0002 0446     		mov	r4, r0
 222              	.LBB2:
  42:Core/Src/sa818.cpp ****     pin_pd=pin_pd_;
 223              		.loc 1 42 5 is_stmt 1 view .LVU36
  42:Core/Src/sa818.cpp ****     pin_pd=pin_pd_;
 224              		.loc 1 42 11 is_stmt 0 view .LVU37
 225 0004 4265     		str	r2, [r0, #84]
  43:Core/Src/sa818.cpp ****     pin_ptt=pin_ptt_;
 226              		.loc 1 43 5 is_stmt 1 view .LVU38
  43:Core/Src/sa818.cpp ****     pin_ptt=pin_ptt_;
 227              		.loc 1 43 12 is_stmt 0 view .LVU39
 228 0006 8365     		str	r3, [r0, #88]
  44:Core/Src/sa818.cpp ****     uartx=uartx_;
 229              		.loc 1 44 5 is_stmt 1 view .LVU40
  44:Core/Src/sa818.cpp ****     uartx=uartx_;
 230              		.loc 1 44 10 is_stmt 0 view .LVU41
 231 0008 C165     		str	r1, [r0, #92]
  48:Core/Src/sa818.cpp ****     sa818_power(on);//Power on the module
 232              		.loc 1 48 5 is_stmt 1 view .LVU42
  48:Core/Src/sa818.cpp ****     sa818_power(on);//Power on the module
 233              		.loc 1 48 16 is_stmt 0 view .LVU43
 234 000a 0121     		movs	r1, #1
 235              	.LVL21:
  48:Core/Src/sa818.cpp ****     sa818_power(on);//Power on the module
 236              		.loc 1 48 16 view .LVU44
 237 000c FFF7FEFF 		bl	_ZN5sa81811sa818_powerENS_5OnOffE
 238              	.LVL22:
  51:Core/Src/sa818.cpp ****     sa818_txrx_mode(rx);//Force the module to transmit
 239              		.loc 1 51 5 is_stmt 1 view .LVU45
ARM GAS  /tmp/cc3KnxAA.s 			page 9


  51:Core/Src/sa818.cpp ****     sa818_txrx_mode(rx);//Force the module to transmit
 240              		.loc 1 51 20 is_stmt 0 view .LVU46
 241 0010 0121     		movs	r1, #1
 242 0012 2046     		mov	r0, r4
 243 0014 FFF7FEFF 		bl	_ZN5sa81815sa818_txrx_modeENS_4TxRxE
 244              	.LVL23:
  53:Core/Src/sa818.cpp ****     sprintf((char *)tx_buf,"AT+DMOCONNECT\r\n");
 245              		.loc 1 53 5 is_stmt 1 view .LVU47
  53:Core/Src/sa818.cpp ****     sprintf((char *)tx_buf,"AT+DMOCONNECT\r\n");
 246              		.loc 1 53 12 is_stmt 0 view .LVU48
 247 0018 094D     		ldr	r5, .L20
 248 001a 0FCD     		ldmia	r5!, {r0, r1, r2, r3}
 249 001c 2060     		str	r0, [r4]	@ unaligned
 250 001e 6160     		str	r1, [r4, #4]	@ unaligned
 251 0020 A260     		str	r2, [r4, #8]	@ unaligned
 252 0022 E360     		str	r3, [r4, #12]	@ unaligned
  54:Core/Src/sa818.cpp ****     tx_len=20;
 253              		.loc 1 54 5 is_stmt 1 view .LVU49
  54:Core/Src/sa818.cpp ****     tx_len=20;
 254              		.loc 1 54 11 is_stmt 0 view .LVU50
 255 0024 1423     		movs	r3, #20
 256 0026 84F85130 		strb	r3, [r4, #81]
  55:Core/Src/sa818.cpp ****     rx_len=16;
 257              		.loc 1 55 5 is_stmt 1 view .LVU51
  55:Core/Src/sa818.cpp ****     rx_len=16;
 258              		.loc 1 55 11 is_stmt 0 view .LVU52
 259 002a 1023     		movs	r3, #16
 260 002c 84F85230 		strb	r3, [r4, #82]
  56:Core/Src/sa818.cpp ****     uartx->send_recive((char*) tx_buf,"+DMOCONNECT:0\r\n");
 261              		.loc 1 56 5 is_stmt 1 view .LVU53
  56:Core/Src/sa818.cpp ****     uartx->send_recive((char*) tx_buf,"+DMOCONNECT:0\r\n");
 262              		.loc 1 56 23 is_stmt 0 view .LVU54
 263 0030 044A     		ldr	r2, .L20+4
 264 0032 2146     		mov	r1, r4
 265 0034 E06D     		ldr	r0, [r4, #92]
 266 0036 FFF7FEFF 		bl	_ZN4uart11send_reciveEPcPKc
 267              	.LVL24:
 268              	.LBE2:
  58:Core/Src/sa818.cpp **** }
 269              		.loc 1 58 1 view .LVU55
 270 003a 2046     		mov	r0, r4
 271 003c 38BD     		pop	{r3, r4, r5, pc}
 272              	.LVL25:
 273              	.L21:
  58:Core/Src/sa818.cpp **** }
 274              		.loc 1 58 1 view .LVU56
 275 003e 00BF     		.align	2
 276              	.L20:
 277 0040 00000000 		.word	.LC0
 278 0044 10000000 		.word	.LC1
 279              		.cfi_endproc
 280              	.LFE1987:
 281              		.fnend
 283              		.global	_ZN5sa818C1EP4uartP3pinS3_
 284              		.thumb_set _ZN5sa818C1EP4uartP3pinS3_,_ZN5sa818C2EP4uartP3pinS3_
 285              		.section	.rodata._ZN5sa81815sa818_configureEhPcS0_S0_hS0_.str1.4,"aMS",%progbits,1
 286              		.align	2
ARM GAS  /tmp/cc3KnxAA.s 			page 10


 287              	.LC2:
 288 0000 41542B44 		.ascii	"AT+DMOSETGROUP=%i,%s,%s,%s,%i,%s\015\012\000"
 288      4D4F5345 
 288      5447524F 
 288      55503D25 
 288      692C2573 
 289              		.section	.text._ZN5sa81815sa818_configureEhPcS0_S0_hS0_,"ax",%progbits
 290              		.align	1
 291              		.global	_ZN5sa81815sa818_configureEhPcS0_S0_hS0_
 292              		.syntax unified
 293              		.thumb
 294              		.thumb_func
 295              		.fpu fpv4-sp-d16
 297              	_ZN5sa81815sa818_configureEhPcS0_S0_hS0_:
 298              		.fnstart
 299              	.LVL26:
 300              	.LFB1989:
  61:Core/Src/sa818.cpp **** {
 301              		.loc 1 61 1 is_stmt 1 view -0
 302              		.cfi_startproc
 303              		@ args = 12, pretend = 0, frame = 0
 304              		@ frame_needed = 0, uses_anonymous_args = 0
  61:Core/Src/sa818.cpp **** {
 305              		.loc 1 61 1 is_stmt 0 view .LVU58
 306 0000 F0B5     		push	{r4, r5, r6, r7, lr}
 307              		.save {r4, r5, r6, r7, lr}
 308              	.LCFI4:
 309              		.cfi_def_cfa_offset 20
 310              		.cfi_offset 4, -20
 311              		.cfi_offset 5, -16
 312              		.cfi_offset 6, -12
 313              		.cfi_offset 7, -8
 314              		.cfi_offset 14, -4
 315              		.pad #20
 316 0002 85B0     		sub	sp, sp, #20
 317              	.LCFI5:
 318              		.cfi_def_cfa_offset 40
 319 0004 0446     		mov	r4, r0
 320 0006 0D46     		mov	r5, r1
 321 0008 1646     		mov	r6, r2
 322 000a 1F46     		mov	r7, r3
  64:Core/Src/sa818.cpp ****     HAL_Delay(1000);
 323              		.loc 1 64 5 is_stmt 1 view .LVU59
  64:Core/Src/sa818.cpp ****     HAL_Delay(1000);
 324              		.loc 1 64 14 is_stmt 0 view .LVU60
 325 000c 4FF47A70 		mov	r0, #1000
 326              	.LVL27:
  64:Core/Src/sa818.cpp ****     HAL_Delay(1000);
 327              		.loc 1 64 14 view .LVU61
 328 0010 FFF7FEFF 		bl	HAL_Delay
 329              	.LVL28:
  66:Core/Src/sa818.cpp ****     sprintf((char *)tx_buf,"AT+DMOSETGROUP=%i,%s,%s,%s,%i,%s\r\n",bw,tx_f,rx_f,tx_subaudio,SQ, Rx_s
 330              		.loc 1 66 5 is_stmt 1 view .LVU62
  66:Core/Src/sa818.cpp ****     sprintf((char *)tx_buf,"AT+DMOSETGROUP=%i,%s,%s,%s,%i,%s\r\n",bw,tx_f,rx_f,tx_subaudio,SQ, Rx_s
 331              		.loc 1 66 12 is_stmt 0 view .LVU63
 332 0014 0C9B     		ldr	r3, [sp, #48]
 333 0016 0393     		str	r3, [sp, #12]
ARM GAS  /tmp/cc3KnxAA.s 			page 11


 334 0018 9DF82C30 		ldrb	r3, [sp, #44]	@ zero_extendqisi2
 335 001c 0293     		str	r3, [sp, #8]
 336 001e 0A9B     		ldr	r3, [sp, #40]
 337 0020 0193     		str	r3, [sp, #4]
 338 0022 0097     		str	r7, [sp]
 339 0024 3346     		mov	r3, r6
 340 0026 2A46     		mov	r2, r5
 341 0028 0849     		ldr	r1, .L24
 342 002a 2046     		mov	r0, r4
 343 002c FFF7FEFF 		bl	sprintf
 344              	.LVL29:
  67:Core/Src/sa818.cpp ****     tx_len=50;
 345              		.loc 1 67 5 is_stmt 1 view .LVU64
  67:Core/Src/sa818.cpp ****     tx_len=50;
 346              		.loc 1 67 11 is_stmt 0 view .LVU65
 347 0030 3223     		movs	r3, #50
 348 0032 84F85130 		strb	r3, [r4, #81]
  68:Core/Src/sa818.cpp ****     rx_len=16;
 349              		.loc 1 68 5 is_stmt 1 view .LVU66
  68:Core/Src/sa818.cpp ****     rx_len=16;
 350              		.loc 1 68 11 is_stmt 0 view .LVU67
 351 0036 1023     		movs	r3, #16
 352 0038 84F85230 		strb	r3, [r4, #82]
  69:Core/Src/sa818.cpp ****     uartx->send_recive((char*) tx_buf,"+DMOCONNECT:0\r\n");
 353              		.loc 1 69 5 is_stmt 1 view .LVU68
  69:Core/Src/sa818.cpp ****     uartx->send_recive((char*) tx_buf,"+DMOCONNECT:0\r\n");
 354              		.loc 1 69 23 is_stmt 0 view .LVU69
 355 003c 044A     		ldr	r2, .L24+4
 356 003e 2146     		mov	r1, r4
 357 0040 E06D     		ldr	r0, [r4, #92]
 358 0042 FFF7FEFF 		bl	_ZN4uart11send_reciveEPcPKc
 359              	.LVL30:
  70:Core/Src/sa818.cpp **** }
 360              		.loc 1 70 1 view .LVU70
 361 0046 05B0     		add	sp, sp, #20
 362              	.LCFI6:
 363              		.cfi_def_cfa_offset 20
 364              		@ sp needed
 365 0048 F0BD     		pop	{r4, r5, r6, r7, pc}
 366              	.LVL31:
 367              	.L25:
  70:Core/Src/sa818.cpp **** }
 368              		.loc 1 70 1 view .LVU71
 369 004a 00BF     		.align	2
 370              	.L24:
 371 004c 00000000 		.word	.LC2
 372 0050 10000000 		.word	.LC1
 373              		.cfi_endproc
 374              	.LFE1989:
 375              		.fnend
 377              		.section	.rodata._ZN5sa81816sa818_set_volumeEh.str1.4,"aMS",%progbits,1
 378              		.align	2
 379              	.LC3:
 380 0000 41542B44 		.ascii	"AT+DMOSETVOLUME=%i\015\012\000"
 380      4D4F5345 
 380      54564F4C 
 380      554D453D 
ARM GAS  /tmp/cc3KnxAA.s 			page 12


 380      25690D0A 
 381              		.section	.text._ZN5sa81816sa818_set_volumeEh,"ax",%progbits
 382              		.align	1
 383              		.global	_ZN5sa81816sa818_set_volumeEh
 384              		.syntax unified
 385              		.thumb
 386              		.thumb_func
 387              		.fpu fpv4-sp-d16
 389              	_ZN5sa81816sa818_set_volumeEh:
 390              		.fnstart
 391              	.LVL32:
 392              	.LFB1990:
  73:Core/Src/sa818.cpp **** {
 393              		.loc 1 73 1 is_stmt 1 view -0
 394              		.cfi_startproc
 395              		@ args = 0, pretend = 0, frame = 0
 396              		@ frame_needed = 0, uses_anonymous_args = 0
  73:Core/Src/sa818.cpp **** {
 397              		.loc 1 73 1 is_stmt 0 view .LVU73
 398 0000 10B5     		push	{r4, lr}
 399              		.save {r4, lr}
 400              	.LCFI7:
 401              		.cfi_def_cfa_offset 8
 402              		.cfi_offset 4, -8
 403              		.cfi_offset 14, -4
 404 0002 0446     		mov	r4, r0
 405 0004 0A46     		mov	r2, r1
  76:Core/Src/sa818.cpp ****     sprintf((char *)tx_buf,"AT+DMOSETVOLUME=%i\r\n",vol);
 406              		.loc 1 76 5 is_stmt 1 view .LVU74
  76:Core/Src/sa818.cpp ****     sprintf((char *)tx_buf,"AT+DMOSETVOLUME=%i\r\n",vol);
 407              		.loc 1 76 12 is_stmt 0 view .LVU75
 408 0006 0749     		ldr	r1, .L28
 409              	.LVL33:
  76:Core/Src/sa818.cpp ****     sprintf((char *)tx_buf,"AT+DMOSETVOLUME=%i\r\n",vol);
 410              		.loc 1 76 12 view .LVU76
 411 0008 FFF7FEFF 		bl	sprintf
 412              	.LVL34:
  77:Core/Src/sa818.cpp ****     tx_len=20;
 413              		.loc 1 77 5 is_stmt 1 view .LVU77
  77:Core/Src/sa818.cpp ****     tx_len=20;
 414              		.loc 1 77 11 is_stmt 0 view .LVU78
 415 000c 1423     		movs	r3, #20
 416 000e 84F85130 		strb	r3, [r4, #81]
  78:Core/Src/sa818.cpp ****     rx_len=16;
 417              		.loc 1 78 5 is_stmt 1 view .LVU79
  78:Core/Src/sa818.cpp ****     rx_len=16;
 418              		.loc 1 78 11 is_stmt 0 view .LVU80
 419 0012 1023     		movs	r3, #16
 420 0014 84F85230 		strb	r3, [r4, #82]
  80:Core/Src/sa818.cpp ****     uartx->send_recive((char*) tx_buf,"+DMOCONNECT:0\r\n");
 421              		.loc 1 80 5 is_stmt 1 view .LVU81
  80:Core/Src/sa818.cpp ****     uartx->send_recive((char*) tx_buf,"+DMOCONNECT:0\r\n");
 422              		.loc 1 80 23 is_stmt 0 view .LVU82
 423 0018 034A     		ldr	r2, .L28+4
 424 001a 2146     		mov	r1, r4
 425 001c E06D     		ldr	r0, [r4, #92]
 426 001e FFF7FEFF 		bl	_ZN4uart11send_reciveEPcPKc
ARM GAS  /tmp/cc3KnxAA.s 			page 13


 427              	.LVL35:
  83:Core/Src/sa818.cpp **** }
 428              		.loc 1 83 1 view .LVU83
 429 0022 10BD     		pop	{r4, pc}
 430              	.LVL36:
 431              	.L29:
  83:Core/Src/sa818.cpp **** }
 432              		.loc 1 83 1 view .LVU84
 433              		.align	2
 434              	.L28:
 435 0024 00000000 		.word	.LC3
 436 0028 10000000 		.word	.LC1
 437              		.cfi_endproc
 438              	.LFE1990:
 439              		.fnend
 441              		.section	.rodata._ZN5sa81814sa818_get_RSSIEv.str1.4,"aMS",%progbits,1
 442              		.align	2
 443              	.LC4:
 444 0000 52535349 		.ascii	"RSSI?\015\012\000"
 444      3F0D0A00 
 445              		.section	.text._ZN5sa81814sa818_get_RSSIEv,"ax",%progbits
 446              		.align	1
 447              		.global	_ZN5sa81814sa818_get_RSSIEv
 448              		.syntax unified
 449              		.thumb
 450              		.thumb_func
 451              		.fpu fpv4-sp-d16
 453              	_ZN5sa81814sa818_get_RSSIEv:
 454              		.fnstart
 455              	.LVL37:
 456              	.LFB1991:
  85:Core/Src/sa818.cpp **** {
 457              		.loc 1 85 1 is_stmt 1 view -0
 458              		.cfi_startproc
 459              		@ args = 0, pretend = 0, frame = 0
 460              		@ frame_needed = 0, uses_anonymous_args = 0
  85:Core/Src/sa818.cpp **** {
 461              		.loc 1 85 1 is_stmt 0 view .LVU86
 462 0000 08B5     		push	{r3, lr}
 463              		.save {r3, lr}
 464              	.LCFI8:
 465              		.cfi_def_cfa_offset 8
 466              		.cfi_offset 3, -8
 467              		.cfi_offset 14, -4
 468 0002 0346     		mov	r3, r0
  87:Core/Src/sa818.cpp ****     sprintf((char *)tx_buf,"RSSI?\r\n");
 469              		.loc 1 87 5 is_stmt 1 view .LVU87
  87:Core/Src/sa818.cpp ****     sprintf((char *)tx_buf,"RSSI?\r\n");
 470              		.loc 1 87 12 is_stmt 0 view .LVU88
 471 0004 074A     		ldr	r2, .L32
 472 0006 03CA     		ldmia	r2!, {r0, r1}
 473              	.LVL38:
  87:Core/Src/sa818.cpp ****     sprintf((char *)tx_buf,"RSSI?\r\n");
 474              		.loc 1 87 12 view .LVU89
 475 0008 1860     		str	r0, [r3]	@ unaligned
 476 000a 5960     		str	r1, [r3, #4]	@ unaligned
  88:Core/Src/sa818.cpp ****     tx_len=7;
ARM GAS  /tmp/cc3KnxAA.s 			page 14


 477              		.loc 1 88 5 is_stmt 1 view .LVU90
  88:Core/Src/sa818.cpp ****     tx_len=7;
 478              		.loc 1 88 11 is_stmt 0 view .LVU91
 479 000c 0722     		movs	r2, #7
 480 000e 83F85120 		strb	r2, [r3, #81]
  89:Core/Src/sa818.cpp ****     rx_len=10;
 481              		.loc 1 89 5 is_stmt 1 view .LVU92
  89:Core/Src/sa818.cpp ****     rx_len=10;
 482              		.loc 1 89 11 is_stmt 0 view .LVU93
 483 0012 0A22     		movs	r2, #10
 484 0014 83F85220 		strb	r2, [r3, #82]
  90:Core/Src/sa818.cpp ****     uartx->send_recive((char*) tx_buf,"+DMOCONNECT:0\r\n");
 485              		.loc 1 90 5 is_stmt 1 view .LVU94
  90:Core/Src/sa818.cpp ****     uartx->send_recive((char*) tx_buf,"+DMOCONNECT:0\r\n");
 486              		.loc 1 90 23 is_stmt 0 view .LVU95
 487 0018 034A     		ldr	r2, .L32+4
 488 001a 1946     		mov	r1, r3
 489 001c D86D     		ldr	r0, [r3, #92]
 490 001e FFF7FEFF 		bl	_ZN4uart11send_reciveEPcPKc
 491              	.LVL39:
  92:Core/Src/sa818.cpp **** }
 492              		.loc 1 92 1 view .LVU96
 493 0022 08BD     		pop	{r3, pc}
 494              	.L33:
 495              		.align	2
 496              	.L32:
 497 0024 00000000 		.word	.LC4
 498 0028 10000000 		.word	.LC1
 499              		.cfi_endproc
 500              	.LFE1991:
 501              		.fnend
 503              		.section	.rodata._ZN5sa81814sa818_set_tailEh.str1.4,"aMS",%progbits,1
 504              		.align	2
 505              	.LC5:
 506 0000 41542B53 		.ascii	"AT+SETTAIL=%i\015\012\000"
 506      45545441 
 506      494C3D25 
 506      690D0A00 
 507              		.align	2
 508              	.LC6:
 509 0010 2B444D4F 		.ascii	"+DMOSETTAIL: 0\015\012\000"
 509      53455454 
 509      41494C3A 
 509      20300D0A 
 509      00
 510              		.section	.text._ZN5sa81814sa818_set_tailEh,"ax",%progbits
 511              		.align	1
 512              		.global	_ZN5sa81814sa818_set_tailEh
 513              		.syntax unified
 514              		.thumb
 515              		.thumb_func
 516              		.fpu fpv4-sp-d16
 518              	_ZN5sa81814sa818_set_tailEh:
 519              		.fnstart
 520              	.LVL40:
 521              	.LFB1992:
  94:Core/Src/sa818.cpp **** {
ARM GAS  /tmp/cc3KnxAA.s 			page 15


 522              		.loc 1 94 1 is_stmt 1 view -0
 523              		.cfi_startproc
 524              		@ args = 0, pretend = 0, frame = 0
 525              		@ frame_needed = 0, uses_anonymous_args = 0
  94:Core/Src/sa818.cpp **** {
 526              		.loc 1 94 1 is_stmt 0 view .LVU98
 527 0000 10B5     		push	{r4, lr}
 528              		.save {r4, lr}
 529              	.LCFI9:
 530              		.cfi_def_cfa_offset 8
 531              		.cfi_offset 4, -8
 532              		.cfi_offset 14, -4
 533 0002 0446     		mov	r4, r0
 534 0004 0A46     		mov	r2, r1
  95:Core/Src/sa818.cpp ****     sprintf((char *)tx_buf,"AT+SETTAIL=%i\r\n",x);
 535              		.loc 1 95 5 is_stmt 1 view .LVU99
  95:Core/Src/sa818.cpp ****     sprintf((char *)tx_buf,"AT+SETTAIL=%i\r\n",x);
 536              		.loc 1 95 12 is_stmt 0 view .LVU100
 537 0006 0749     		ldr	r1, .L36
 538              	.LVL41:
  95:Core/Src/sa818.cpp ****     sprintf((char *)tx_buf,"AT+SETTAIL=%i\r\n",x);
 539              		.loc 1 95 12 view .LVU101
 540 0008 FFF7FEFF 		bl	sprintf
 541              	.LVL42:
  96:Core/Src/sa818.cpp ****     tx_len=14;
 542              		.loc 1 96 5 is_stmt 1 view .LVU102
  96:Core/Src/sa818.cpp ****     tx_len=14;
 543              		.loc 1 96 11 is_stmt 0 view .LVU103
 544 000c 0E23     		movs	r3, #14
 545 000e 84F85130 		strb	r3, [r4, #81]
  97:Core/Src/sa818.cpp ****     rx_len=16;
 546              		.loc 1 97 5 is_stmt 1 view .LVU104
  97:Core/Src/sa818.cpp ****     rx_len=16;
 547              		.loc 1 97 11 is_stmt 0 view .LVU105
 548 0012 1023     		movs	r3, #16
 549 0014 84F85230 		strb	r3, [r4, #82]
  99:Core/Src/sa818.cpp ****     uartx->send_recive((char*) tx_buf,"+DMOSETTAIL: 0\r\n");
 550              		.loc 1 99 5 is_stmt 1 view .LVU106
  99:Core/Src/sa818.cpp ****     uartx->send_recive((char*) tx_buf,"+DMOSETTAIL: 0\r\n");
 551              		.loc 1 99 23 is_stmt 0 view .LVU107
 552 0018 034A     		ldr	r2, .L36+4
 553 001a 2146     		mov	r1, r4
 554 001c E06D     		ldr	r0, [r4, #92]
 555 001e FFF7FEFF 		bl	_ZN4uart11send_reciveEPcPKc
 556              	.LVL43:
 101:Core/Src/sa818.cpp **** }
 557              		.loc 1 101 1 view .LVU108
 558 0022 10BD     		pop	{r4, pc}
 559              	.LVL44:
 560              	.L37:
 101:Core/Src/sa818.cpp **** }
 561              		.loc 1 101 1 view .LVU109
 562              		.align	2
 563              	.L36:
 564 0024 00000000 		.word	.LC5
 565 0028 10000000 		.word	.LC6
 566              		.cfi_endproc
ARM GAS  /tmp/cc3KnxAA.s 			page 16


 567              	.LFE1992:
 568              		.fnend
 570              		.section	.text._ZN5sa81821sa818_recieve_messageEh,"ax",%progbits
 571              		.align	1
 572              		.global	_ZN5sa81821sa818_recieve_messageEh
 573              		.syntax unified
 574              		.thumb
 575              		.thumb_func
 576              		.fpu fpv4-sp-d16
 578              	_ZN5sa81821sa818_recieve_messageEh:
 579              		.fnstart
 580              	.LVL45:
 581              	.LFB1993:
 104:Core/Src/sa818.cpp **** {
 582              		.loc 1 104 1 is_stmt 1 view -0
 583              		.cfi_startproc
 584              		@ args = 0, pretend = 0, frame = 0
 585              		@ frame_needed = 0, uses_anonymous_args = 0
 586              		@ link register save eliminated.
 105:Core/Src/sa818.cpp ****     return 0;
 587              		.loc 1 105 5 view .LVU111
 588              		.loc 1 106 1 is_stmt 0 view .LVU112
 589 0000 0020     		movs	r0, #0
 590              	.LVL46:
 591              		.loc 1 106 1 view .LVU113
 592 0002 7047     		bx	lr
 593              		.cfi_endproc
 594              	.LFE1993:
 595              		.cantunwind
 596              		.fnend
 598              		.section	.text._GLOBAL__sub_I_CMD_SET,"ax",%progbits
 599              		.align	1
 600              		.syntax unified
 601              		.thumb
 602              		.thumb_func
 603              		.fpu fpv4-sp-d16
 605              	_GLOBAL__sub_I_CMD_SET:
 606              		.fnstart
 607              	.LFB2474:
 608              		.loc 1 106 1 is_stmt 1 view -0
 609              		.cfi_startproc
 610              		@ args = 0, pretend = 0, frame = 0
 611              		@ frame_needed = 0, uses_anonymous_args = 0
 612 0000 08B5     		push	{r3, lr}
 613              	.LCFI10:
 614              		.cfi_def_cfa_offset 8
 615              		.cfi_offset 3, -8
 616              		.cfi_offset 14, -4
 617              		.loc 1 106 1 is_stmt 0 view .LVU115
 618 0002 4FF6FF71 		movw	r1, #65535
 619 0006 0120     		movs	r0, #1
 620 0008 FFF7FEFF 		bl	_Z41__static_initialization_and_destruction_0ii
 621              	.LVL47:
 622 000c 08BD     		pop	{r3, pc}
 623              		.cfi_endproc
 624              	.LFE2474:
 625              		.cantunwind
ARM GAS  /tmp/cc3KnxAA.s 			page 17


 626              		.fnend
 628              		.section	.init_array,"aw",%init_array
 629              		.align	2
 630 0000 00000000 		.word	_GLOBAL__sub_I_CMD_SET(target1)
 631              		.global	rx_len
 632              		.global	tx_len
 633              		.global	locked
 634              		.global	rx_buf
 635              		.global	tx_buf
 636              		.global	USART
 637              		.global	status_cnt
 638              		.global	len_rxnow
 639              		.global	len_txnow
 640              		.global	expected_rx
 641              		.global	CMD_VOLUME
 642              		.global	CMD_SET
 643              		.section	.bss.USART,"aw",%nobits
 644              		.align	2
 647              	USART:
 648 0000 00000000 		.space	4
 649              		.section	.bss._ZStL8__ioinit,"aw",%nobits
 650              		.align	2
 651              		.set	.LANCHOR0,. + 0
 654              	_ZStL8__ioinit:
 655 0000 00       		.space	1
 656              		.section	.bss.expected_rx,"aw",%nobits
 657              		.align	2
 660              	expected_rx:
 661 0000 00000000 		.space	30
 661      00000000 
 661      00000000 
 661      00000000 
 661      00000000 
 662              		.section	.bss.len_rxnow,"aw",%nobits
 665              	len_rxnow:
 666 0000 00       		.space	1
 667              		.section	.bss.len_txnow,"aw",%nobits
 670              	len_txnow:
 671 0000 00       		.space	1
 672              		.section	.bss.locked,"aw",%nobits
 675              	locked:
 676 0000 00       		.space	1
 677              		.section	.bss.rx_buf,"aw",%nobits
 678              		.align	2
 681              	rx_buf:
 682 0000 00000000 		.space	30
 682      00000000 
 682      00000000 
 682      00000000 
 682      00000000 
 683              		.section	.bss.rx_len,"aw",%nobits
 686              	rx_len:
 687 0000 00       		.space	1
 688              		.section	.bss.tx_buf,"aw",%nobits
 689              		.align	2
 692              	tx_buf:
 693 0000 00000000 		.space	50
ARM GAS  /tmp/cc3KnxAA.s 			page 18


 693      00000000 
 693      00000000 
 693      00000000 
 693      00000000 
 694              		.section	.bss.tx_len,"aw",%nobits
 697              	tx_len:
 698 0000 00       		.space	1
 699              		.section	.data.CMD_SET,"aw"
 700              		.align	2
 703              	CMD_SET:
 704 0000 41542B44 		.ascii	"AT+DMOSETGROUP="
 704      4D4F5345 
 704      5447524F 
 704      55503D
 705              		.section	.data.CMD_VOLUME,"aw"
 706              		.align	2
 709              	CMD_VOLUME:
 710 0000 41542B44 		.ascii	"AT+DMOSETVOLUME="
 710      4D4F5345 
 710      54564F4C 
 710      554D453D 
 711              		.section	.data.status_cnt,"aw"
 714              	status_cnt:
 715 0000 02       		.byte	2
 716              		.text
 717              	.Letext0:
 718              		.file 3 "/usr/include/newlib/machine/_default_types.h"
 719              		.file 4 "/usr/lib/gcc/arm-none-eabi/9.2.1/include/stddef.h"
 720              		.file 5 "/usr/lib/gcc/arm-none-eabi/9.2.1/include/stdarg.h"
 721              		.file 6 "/usr/include/newlib/sys/_types.h"
 722              		.file 7 "/usr/include/newlib/sys/reent.h"
 723              		.file 8 "/usr/include/newlib/sys/lock.h"
 724              		.file 9 "/usr/include/newlib/sys/_stdint.h"
 725              		.file 10 "/usr/include/newlib/stdio.h"
 726              		.file 11 "/usr/lib/gcc/arm-none-eabi/9.2.1/include/stdint.h"
 727              		.file 12 "Drivers/CMSIS/Include/core_cm4.h"
 728              		.file 13 "Drivers/CMSIS/Device/ST/STM32F4xx/Include/system_stm32f4xx.h"
 729              		.file 14 "Drivers/CMSIS/Device/ST/STM32F4xx/Include/stm32f411xe.h"
 730              		.file 15 "Drivers/STM32F4xx_HAL_Driver/Inc/stm32f4xx_hal_def.h"
 731              		.file 16 "Drivers/STM32F4xx_HAL_Driver/Inc/stm32f4xx_hal_gpio.h"
 732              		.file 17 "Drivers/STM32F4xx_HAL_Driver/Inc/stm32f4xx_hal_dma.h"
 733              		.file 18 "Drivers/STM32F4xx_HAL_Driver/Inc/stm32f4xx_hal_uart.h"
 734              		.file 19 "Drivers/STM32F4xx_HAL_Driver/Inc/stm32f4xx_hal.h"
 735              		.file 20 "Core/Inc/pin.hpp"
 736              		.file 21 "/usr/include/newlib/c++/9.2.1/cwchar"
 737              		.file 22 "/usr/include/newlib/c++/9.2.1/new"
 738              		.file 23 "/usr/include/newlib/c++/9.2.1/bits/exception_ptr.h"
 739              		.file 24 "/usr/include/newlib/c++/9.2.1/arm-none-eabi/thumb/v7e-m+fp/hard/bits/c++config.h"
 740              		.file 25 "/usr/include/newlib/c++/9.2.1/type_traits"
 741              		.file 26 "/usr/include/newlib/c++/9.2.1/bits/stl_pair.h"
 742              		.file 27 "/usr/include/newlib/c++/9.2.1/debug/debug.h"
 743              		.file 28 "/usr/include/newlib/c++/9.2.1/bits/char_traits.h"
 744              		.file 29 "/usr/include/newlib/c++/9.2.1/cstdint"
 745              		.file 30 "/usr/include/newlib/c++/9.2.1/clocale"
 746              		.file 31 "/usr/include/newlib/c++/9.2.1/cstdlib"
 747              		.file 32 "/usr/include/newlib/c++/9.2.1/cstdio"
 748              		.file 33 "/usr/include/newlib/c++/9.2.1/bits/basic_string.h"
ARM GAS  /tmp/cc3KnxAA.s 			page 19


 749              		.file 34 "/usr/include/newlib/c++/9.2.1/system_error"
 750              		.file 35 "/usr/include/newlib/c++/9.2.1/bits/ios_base.h"
 751              		.file 36 "/usr/include/newlib/c++/9.2.1/cwctype"
 752              		.file 37 "/usr/include/newlib/c++/9.2.1/iosfwd"
 753              		.file 38 "/usr/include/newlib/c++/9.2.1/bits/uses_allocator.h"
 754              		.file 39 "/usr/include/newlib/c++/9.2.1/tuple"
 755              		.file 40 "/usr/include/newlib/c++/9.2.1/functional"
 756              		.file 41 "/usr/include/newlib/c++/9.2.1/bits/predefined_ops.h"
 757              		.file 42 "/usr/include/newlib/c++/9.2.1/ext/new_allocator.h"
 758              		.file 43 "/usr/include/newlib/c++/9.2.1/ext/numeric_traits.h"
 759              		.file 44 "<built-in>"
 760              		.file 45 "/usr/include/newlib/wchar.h"
 761              		.file 46 "/usr/include/newlib/locale.h"
 762              		.file 47 "/usr/include/newlib/ctype.h"
 763              		.file 48 "/usr/include/newlib/c++/9.2.1/arm-none-eabi/thumb/v7e-m+fp/hard/bits/atomic_word.h"
 764              		.file 49 "/usr/include/newlib/stdlib.h"
 765              		.file 50 "/usr/include/newlib/sys/errno.h"
 766              		.file 51 "/usr/include/newlib/wctype.h"
 767              		.file 52 "Core/Inc/uart.hpp"
 768              		.file 53 "Core/Inc/sa818.h"
ARM GAS  /tmp/cc3KnxAA.s 			page 20

