ARM GAS  /tmp/ccvhwIcY.s 			page 1


   1              		.cpu cortex-m4
   2              		.eabi_attribute 27, 1
   3              		.eabi_attribute 28, 1
   4              		.eabi_attribute 20, 1
   5              		.eabi_attribute 21, 1
   6              		.eabi_attribute 23, 3
   7              		.eabi_attribute 24, 1
   8              		.eabi_attribute 25, 1
   9              		.eabi_attribute 26, 1
  10              		.eabi_attribute 30, 1
  11              		.eabi_attribute 34, 1
  12              		.eabi_attribute 18, 4
  13              		.file	"stm32f4xx_hal_msp.c"
  14              		.text
  15              	.Ltext0:
  16              		.cfi_sections	.debug_frame
  17              		.section	.text.HAL_MspInit,"ax",%progbits
  18              		.align	1
  19              		.global	HAL_MspInit
  20              		.arch armv7e-m
  21              		.syntax unified
  22              		.thumb
  23              		.thumb_func
  24              		.fpu fpv4-sp-d16
  26              	HAL_MspInit:
  27              	.LFB130:
  28              		.file 1 "Core/Src/stm32f4xx_hal_msp.c"
   1:Core/Src/stm32f4xx_hal_msp.c **** /* USER CODE BEGIN Header */
   2:Core/Src/stm32f4xx_hal_msp.c **** /**
   3:Core/Src/stm32f4xx_hal_msp.c ****   ******************************************************************************
   4:Core/Src/stm32f4xx_hal_msp.c ****   * @file         stm32f4xx_hal_msp.c
   5:Core/Src/stm32f4xx_hal_msp.c ****   * @brief        This file provides code for the MSP Initialization
   6:Core/Src/stm32f4xx_hal_msp.c ****   *               and de-Initialization codes.
   7:Core/Src/stm32f4xx_hal_msp.c ****   ******************************************************************************
   8:Core/Src/stm32f4xx_hal_msp.c ****   * @attention
   9:Core/Src/stm32f4xx_hal_msp.c ****   *
  10:Core/Src/stm32f4xx_hal_msp.c ****   * <h2><center>&copy; Copyright (c) 2021 STMicroelectronics.
  11:Core/Src/stm32f4xx_hal_msp.c ****   * All rights reserved.</center></h2>
  12:Core/Src/stm32f4xx_hal_msp.c ****   *
  13:Core/Src/stm32f4xx_hal_msp.c ****   * This software component is licensed by ST under BSD 3-Clause license,
  14:Core/Src/stm32f4xx_hal_msp.c ****   * the "License"; You may not use this file except in compliance with the
  15:Core/Src/stm32f4xx_hal_msp.c ****   * License. You may obtain a copy of the License at:
  16:Core/Src/stm32f4xx_hal_msp.c ****   *                        opensource.org/licenses/BSD-3-Clause
  17:Core/Src/stm32f4xx_hal_msp.c ****   *
  18:Core/Src/stm32f4xx_hal_msp.c ****   ******************************************************************************
  19:Core/Src/stm32f4xx_hal_msp.c ****   */
  20:Core/Src/stm32f4xx_hal_msp.c **** /* USER CODE END Header */
  21:Core/Src/stm32f4xx_hal_msp.c **** 
  22:Core/Src/stm32f4xx_hal_msp.c **** /* Includes ------------------------------------------------------------------*/
  23:Core/Src/stm32f4xx_hal_msp.c **** #include "main.h"
  24:Core/Src/stm32f4xx_hal_msp.c **** /* USER CODE BEGIN Includes */
  25:Core/Src/stm32f4xx_hal_msp.c **** 
  26:Core/Src/stm32f4xx_hal_msp.c **** /* USER CODE END Includes */
  27:Core/Src/stm32f4xx_hal_msp.c **** 
  28:Core/Src/stm32f4xx_hal_msp.c **** /* Private typedef -----------------------------------------------------------*/
  29:Core/Src/stm32f4xx_hal_msp.c **** /* USER CODE BEGIN TD */
  30:Core/Src/stm32f4xx_hal_msp.c **** 
ARM GAS  /tmp/ccvhwIcY.s 			page 2


  31:Core/Src/stm32f4xx_hal_msp.c **** /* USER CODE END TD */
  32:Core/Src/stm32f4xx_hal_msp.c **** 
  33:Core/Src/stm32f4xx_hal_msp.c **** /* Private define ------------------------------------------------------------*/
  34:Core/Src/stm32f4xx_hal_msp.c **** /* USER CODE BEGIN Define */
  35:Core/Src/stm32f4xx_hal_msp.c **** 
  36:Core/Src/stm32f4xx_hal_msp.c **** /* USER CODE END Define */
  37:Core/Src/stm32f4xx_hal_msp.c **** 
  38:Core/Src/stm32f4xx_hal_msp.c **** /* Private macro -------------------------------------------------------------*/
  39:Core/Src/stm32f4xx_hal_msp.c **** /* USER CODE BEGIN Macro */
  40:Core/Src/stm32f4xx_hal_msp.c **** 
  41:Core/Src/stm32f4xx_hal_msp.c **** /* USER CODE END Macro */
  42:Core/Src/stm32f4xx_hal_msp.c **** 
  43:Core/Src/stm32f4xx_hal_msp.c **** /* Private variables ---------------------------------------------------------*/
  44:Core/Src/stm32f4xx_hal_msp.c **** /* USER CODE BEGIN PV */
  45:Core/Src/stm32f4xx_hal_msp.c **** 
  46:Core/Src/stm32f4xx_hal_msp.c **** /* USER CODE END PV */
  47:Core/Src/stm32f4xx_hal_msp.c **** 
  48:Core/Src/stm32f4xx_hal_msp.c **** /* Private function prototypes -----------------------------------------------*/
  49:Core/Src/stm32f4xx_hal_msp.c **** /* USER CODE BEGIN PFP */
  50:Core/Src/stm32f4xx_hal_msp.c **** 
  51:Core/Src/stm32f4xx_hal_msp.c **** /* USER CODE END PFP */
  52:Core/Src/stm32f4xx_hal_msp.c **** 
  53:Core/Src/stm32f4xx_hal_msp.c **** /* External functions --------------------------------------------------------*/
  54:Core/Src/stm32f4xx_hal_msp.c **** /* USER CODE BEGIN ExternalFunctions */
  55:Core/Src/stm32f4xx_hal_msp.c **** 
  56:Core/Src/stm32f4xx_hal_msp.c **** /* USER CODE END ExternalFunctions */
  57:Core/Src/stm32f4xx_hal_msp.c **** 
  58:Core/Src/stm32f4xx_hal_msp.c **** /* USER CODE BEGIN 0 */
  59:Core/Src/stm32f4xx_hal_msp.c **** 
  60:Core/Src/stm32f4xx_hal_msp.c **** /* USER CODE END 0 */
  61:Core/Src/stm32f4xx_hal_msp.c **** /**
  62:Core/Src/stm32f4xx_hal_msp.c ****   * Initializes the Global MSP.
  63:Core/Src/stm32f4xx_hal_msp.c ****   */
  64:Core/Src/stm32f4xx_hal_msp.c **** void HAL_MspInit(void)
  65:Core/Src/stm32f4xx_hal_msp.c **** {
  29              		.loc 1 65 1 view -0
  30              		.cfi_startproc
  31              		@ args = 0, pretend = 0, frame = 8
  32              		@ frame_needed = 0, uses_anonymous_args = 0
  33              		@ link register save eliminated.
  34 0000 82B0     		sub	sp, sp, #8
  35              	.LCFI0:
  36              		.cfi_def_cfa_offset 8
  66:Core/Src/stm32f4xx_hal_msp.c ****   /* USER CODE BEGIN MspInit 0 */
  67:Core/Src/stm32f4xx_hal_msp.c **** 
  68:Core/Src/stm32f4xx_hal_msp.c ****   /* USER CODE END MspInit 0 */
  69:Core/Src/stm32f4xx_hal_msp.c **** 
  70:Core/Src/stm32f4xx_hal_msp.c ****   __HAL_RCC_SYSCFG_CLK_ENABLE();
  37              		.loc 1 70 3 view .LVU1
  38              	.LBB2:
  39              		.loc 1 70 3 view .LVU2
  40 0002 0021     		movs	r1, #0
  41 0004 0091     		str	r1, [sp]
  42              		.loc 1 70 3 view .LVU3
  43 0006 0B4B     		ldr	r3, .L3
  44 0008 5A6C     		ldr	r2, [r3, #68]
  45 000a 42F48042 		orr	r2, r2, #16384
ARM GAS  /tmp/ccvhwIcY.s 			page 3


  46 000e 5A64     		str	r2, [r3, #68]
  47              		.loc 1 70 3 view .LVU4
  48 0010 5A6C     		ldr	r2, [r3, #68]
  49 0012 02F48042 		and	r2, r2, #16384
  50 0016 0092     		str	r2, [sp]
  51              		.loc 1 70 3 view .LVU5
  52 0018 009A     		ldr	r2, [sp]
  53              	.LBE2:
  54              		.loc 1 70 3 view .LVU6
  71:Core/Src/stm32f4xx_hal_msp.c ****   __HAL_RCC_PWR_CLK_ENABLE();
  55              		.loc 1 71 3 view .LVU7
  56              	.LBB3:
  57              		.loc 1 71 3 view .LVU8
  58 001a 0191     		str	r1, [sp, #4]
  59              		.loc 1 71 3 view .LVU9
  60 001c 1A6C     		ldr	r2, [r3, #64]
  61 001e 42F08052 		orr	r2, r2, #268435456
  62 0022 1A64     		str	r2, [r3, #64]
  63              		.loc 1 71 3 view .LVU10
  64 0024 1B6C     		ldr	r3, [r3, #64]
  65 0026 03F08053 		and	r3, r3, #268435456
  66 002a 0193     		str	r3, [sp, #4]
  67              		.loc 1 71 3 view .LVU11
  68 002c 019B     		ldr	r3, [sp, #4]
  69              	.LBE3:
  70              		.loc 1 71 3 view .LVU12
  72:Core/Src/stm32f4xx_hal_msp.c **** 
  73:Core/Src/stm32f4xx_hal_msp.c ****   /* System interrupt init*/
  74:Core/Src/stm32f4xx_hal_msp.c **** 
  75:Core/Src/stm32f4xx_hal_msp.c ****   /* USER CODE BEGIN MspInit 1 */
  76:Core/Src/stm32f4xx_hal_msp.c **** 
  77:Core/Src/stm32f4xx_hal_msp.c ****   /* USER CODE END MspInit 1 */
  78:Core/Src/stm32f4xx_hal_msp.c **** }
  71              		.loc 1 78 1 is_stmt 0 view .LVU13
  72 002e 02B0     		add	sp, sp, #8
  73              	.LCFI1:
  74              		.cfi_def_cfa_offset 0
  75              		@ sp needed
  76 0030 7047     		bx	lr
  77              	.L4:
  78 0032 00BF     		.align	2
  79              	.L3:
  80 0034 00380240 		.word	1073887232
  81              		.cfi_endproc
  82              	.LFE130:
  84              		.section	.text.HAL_ADC_MspInit,"ax",%progbits
  85              		.align	1
  86              		.global	HAL_ADC_MspInit
  87              		.syntax unified
  88              		.thumb
  89              		.thumb_func
  90              		.fpu fpv4-sp-d16
  92              	HAL_ADC_MspInit:
  93              	.LVL0:
  94              	.LFB131:
  79:Core/Src/stm32f4xx_hal_msp.c **** 
  80:Core/Src/stm32f4xx_hal_msp.c **** /**
ARM GAS  /tmp/ccvhwIcY.s 			page 4


  81:Core/Src/stm32f4xx_hal_msp.c **** * @brief ADC MSP Initialization
  82:Core/Src/stm32f4xx_hal_msp.c **** * This function configures the hardware resources used in this example
  83:Core/Src/stm32f4xx_hal_msp.c **** * @param hadc: ADC handle pointer
  84:Core/Src/stm32f4xx_hal_msp.c **** * @retval None
  85:Core/Src/stm32f4xx_hal_msp.c **** */
  86:Core/Src/stm32f4xx_hal_msp.c **** void HAL_ADC_MspInit(ADC_HandleTypeDef* hadc)
  87:Core/Src/stm32f4xx_hal_msp.c **** {
  95              		.loc 1 87 1 is_stmt 1 view -0
  96              		.cfi_startproc
  97              		@ args = 0, pretend = 0, frame = 32
  98              		@ frame_needed = 0, uses_anonymous_args = 0
  99              		.loc 1 87 1 is_stmt 0 view .LVU15
 100 0000 30B5     		push	{r4, r5, lr}
 101              	.LCFI2:
 102              		.cfi_def_cfa_offset 12
 103              		.cfi_offset 4, -12
 104              		.cfi_offset 5, -8
 105              		.cfi_offset 14, -4
 106 0002 89B0     		sub	sp, sp, #36
 107              	.LCFI3:
 108              		.cfi_def_cfa_offset 48
  88:Core/Src/stm32f4xx_hal_msp.c ****   GPIO_InitTypeDef GPIO_InitStruct = {0};
 109              		.loc 1 88 3 is_stmt 1 view .LVU16
 110              		.loc 1 88 20 is_stmt 0 view .LVU17
 111 0004 0023     		movs	r3, #0
 112 0006 0393     		str	r3, [sp, #12]
 113 0008 0493     		str	r3, [sp, #16]
 114 000a 0593     		str	r3, [sp, #20]
 115 000c 0693     		str	r3, [sp, #24]
 116 000e 0793     		str	r3, [sp, #28]
  89:Core/Src/stm32f4xx_hal_msp.c ****   if(hadc->Instance==ADC1)
 117              		.loc 1 89 3 is_stmt 1 view .LVU18
 118              		.loc 1 89 10 is_stmt 0 view .LVU19
 119 0010 0268     		ldr	r2, [r0]
 120              		.loc 1 89 5 view .LVU20
 121 0012 03F18043 		add	r3, r3, #1073741824
 122 0016 03F59033 		add	r3, r3, #73728
 123 001a 9A42     		cmp	r2, r3
 124 001c 01D0     		beq	.L8
 125              	.LVL1:
 126              	.L5:
  90:Core/Src/stm32f4xx_hal_msp.c ****   {
  91:Core/Src/stm32f4xx_hal_msp.c ****   /* USER CODE BEGIN ADC1_MspInit 0 */
  92:Core/Src/stm32f4xx_hal_msp.c **** 
  93:Core/Src/stm32f4xx_hal_msp.c ****   /* USER CODE END ADC1_MspInit 0 */
  94:Core/Src/stm32f4xx_hal_msp.c ****     /* Peripheral clock enable */
  95:Core/Src/stm32f4xx_hal_msp.c ****     __HAL_RCC_ADC1_CLK_ENABLE();
  96:Core/Src/stm32f4xx_hal_msp.c **** 
  97:Core/Src/stm32f4xx_hal_msp.c ****     __HAL_RCC_GPIOC_CLK_ENABLE();
  98:Core/Src/stm32f4xx_hal_msp.c ****     __HAL_RCC_GPIOA_CLK_ENABLE();
  99:Core/Src/stm32f4xx_hal_msp.c ****     /**ADC1 GPIO Configuration
 100:Core/Src/stm32f4xx_hal_msp.c ****     PC0     ------> ADC1_IN10
 101:Core/Src/stm32f4xx_hal_msp.c ****     PC1     ------> ADC1_IN11
 102:Core/Src/stm32f4xx_hal_msp.c ****     PC2     ------> ADC1_IN12
 103:Core/Src/stm32f4xx_hal_msp.c ****     PA0-WKUP     ------> ADC1_IN0
 104:Core/Src/stm32f4xx_hal_msp.c ****     */
 105:Core/Src/stm32f4xx_hal_msp.c ****     GPIO_InitStruct.Pin = GPIO_PIN_0|GPIO_PIN_1|GPIO_PIN_2;
ARM GAS  /tmp/ccvhwIcY.s 			page 5


 106:Core/Src/stm32f4xx_hal_msp.c ****     GPIO_InitStruct.Mode = GPIO_MODE_ANALOG;
 107:Core/Src/stm32f4xx_hal_msp.c ****     GPIO_InitStruct.Pull = GPIO_NOPULL;
 108:Core/Src/stm32f4xx_hal_msp.c ****     HAL_GPIO_Init(GPIOC, &GPIO_InitStruct);
 109:Core/Src/stm32f4xx_hal_msp.c **** 
 110:Core/Src/stm32f4xx_hal_msp.c ****     GPIO_InitStruct.Pin = GPIO_PIN_0;
 111:Core/Src/stm32f4xx_hal_msp.c ****     GPIO_InitStruct.Mode = GPIO_MODE_ANALOG;
 112:Core/Src/stm32f4xx_hal_msp.c ****     GPIO_InitStruct.Pull = GPIO_NOPULL;
 113:Core/Src/stm32f4xx_hal_msp.c ****     HAL_GPIO_Init(GPIOA, &GPIO_InitStruct);
 114:Core/Src/stm32f4xx_hal_msp.c **** 
 115:Core/Src/stm32f4xx_hal_msp.c ****   /* USER CODE BEGIN ADC1_MspInit 1 */
 116:Core/Src/stm32f4xx_hal_msp.c **** 
 117:Core/Src/stm32f4xx_hal_msp.c ****   /* USER CODE END ADC1_MspInit 1 */
 118:Core/Src/stm32f4xx_hal_msp.c ****   }
 119:Core/Src/stm32f4xx_hal_msp.c **** 
 120:Core/Src/stm32f4xx_hal_msp.c **** }
 127              		.loc 1 120 1 view .LVU21
 128 001e 09B0     		add	sp, sp, #36
 129              	.LCFI4:
 130              		.cfi_remember_state
 131              		.cfi_def_cfa_offset 12
 132              		@ sp needed
 133 0020 30BD     		pop	{r4, r5, pc}
 134              	.LVL2:
 135              	.L8:
 136              	.LCFI5:
 137              		.cfi_restore_state
  95:Core/Src/stm32f4xx_hal_msp.c **** 
 138              		.loc 1 95 5 is_stmt 1 view .LVU22
 139              	.LBB4:
  95:Core/Src/stm32f4xx_hal_msp.c **** 
 140              		.loc 1 95 5 view .LVU23
 141 0022 0024     		movs	r4, #0
 142 0024 0094     		str	r4, [sp]
  95:Core/Src/stm32f4xx_hal_msp.c **** 
 143              		.loc 1 95 5 view .LVU24
 144 0026 03F58C33 		add	r3, r3, #71680
 145 002a 5A6C     		ldr	r2, [r3, #68]
 146 002c 42F48072 		orr	r2, r2, #256
 147 0030 5A64     		str	r2, [r3, #68]
  95:Core/Src/stm32f4xx_hal_msp.c **** 
 148              		.loc 1 95 5 view .LVU25
 149 0032 5A6C     		ldr	r2, [r3, #68]
 150 0034 02F48072 		and	r2, r2, #256
 151 0038 0092     		str	r2, [sp]
  95:Core/Src/stm32f4xx_hal_msp.c **** 
 152              		.loc 1 95 5 view .LVU26
 153 003a 009A     		ldr	r2, [sp]
 154              	.LBE4:
  95:Core/Src/stm32f4xx_hal_msp.c **** 
 155              		.loc 1 95 5 view .LVU27
  97:Core/Src/stm32f4xx_hal_msp.c ****     __HAL_RCC_GPIOA_CLK_ENABLE();
 156              		.loc 1 97 5 view .LVU28
 157              	.LBB5:
  97:Core/Src/stm32f4xx_hal_msp.c ****     __HAL_RCC_GPIOA_CLK_ENABLE();
 158              		.loc 1 97 5 view .LVU29
 159 003c 0194     		str	r4, [sp, #4]
  97:Core/Src/stm32f4xx_hal_msp.c ****     __HAL_RCC_GPIOA_CLK_ENABLE();
ARM GAS  /tmp/ccvhwIcY.s 			page 6


 160              		.loc 1 97 5 view .LVU30
 161 003e 1A6B     		ldr	r2, [r3, #48]
 162 0040 42F00402 		orr	r2, r2, #4
 163 0044 1A63     		str	r2, [r3, #48]
  97:Core/Src/stm32f4xx_hal_msp.c ****     __HAL_RCC_GPIOA_CLK_ENABLE();
 164              		.loc 1 97 5 view .LVU31
 165 0046 1A6B     		ldr	r2, [r3, #48]
 166 0048 02F00402 		and	r2, r2, #4
 167 004c 0192     		str	r2, [sp, #4]
  97:Core/Src/stm32f4xx_hal_msp.c ****     __HAL_RCC_GPIOA_CLK_ENABLE();
 168              		.loc 1 97 5 view .LVU32
 169 004e 019A     		ldr	r2, [sp, #4]
 170              	.LBE5:
  97:Core/Src/stm32f4xx_hal_msp.c ****     __HAL_RCC_GPIOA_CLK_ENABLE();
 171              		.loc 1 97 5 view .LVU33
  98:Core/Src/stm32f4xx_hal_msp.c ****     /**ADC1 GPIO Configuration
 172              		.loc 1 98 5 view .LVU34
 173              	.LBB6:
  98:Core/Src/stm32f4xx_hal_msp.c ****     /**ADC1 GPIO Configuration
 174              		.loc 1 98 5 view .LVU35
 175 0050 0294     		str	r4, [sp, #8]
  98:Core/Src/stm32f4xx_hal_msp.c ****     /**ADC1 GPIO Configuration
 176              		.loc 1 98 5 view .LVU36
 177 0052 1A6B     		ldr	r2, [r3, #48]
 178 0054 42F00102 		orr	r2, r2, #1
 179 0058 1A63     		str	r2, [r3, #48]
  98:Core/Src/stm32f4xx_hal_msp.c ****     /**ADC1 GPIO Configuration
 180              		.loc 1 98 5 view .LVU37
 181 005a 1B6B     		ldr	r3, [r3, #48]
 182 005c 03F00103 		and	r3, r3, #1
 183 0060 0293     		str	r3, [sp, #8]
  98:Core/Src/stm32f4xx_hal_msp.c ****     /**ADC1 GPIO Configuration
 184              		.loc 1 98 5 view .LVU38
 185 0062 029B     		ldr	r3, [sp, #8]
 186              	.LBE6:
  98:Core/Src/stm32f4xx_hal_msp.c ****     /**ADC1 GPIO Configuration
 187              		.loc 1 98 5 view .LVU39
 105:Core/Src/stm32f4xx_hal_msp.c ****     GPIO_InitStruct.Mode = GPIO_MODE_ANALOG;
 188              		.loc 1 105 5 view .LVU40
 105:Core/Src/stm32f4xx_hal_msp.c ****     GPIO_InitStruct.Mode = GPIO_MODE_ANALOG;
 189              		.loc 1 105 25 is_stmt 0 view .LVU41
 190 0064 0723     		movs	r3, #7
 191 0066 0393     		str	r3, [sp, #12]
 106:Core/Src/stm32f4xx_hal_msp.c ****     GPIO_InitStruct.Pull = GPIO_NOPULL;
 192              		.loc 1 106 5 is_stmt 1 view .LVU42
 106:Core/Src/stm32f4xx_hal_msp.c ****     GPIO_InitStruct.Pull = GPIO_NOPULL;
 193              		.loc 1 106 26 is_stmt 0 view .LVU43
 194 0068 0325     		movs	r5, #3
 195 006a 0495     		str	r5, [sp, #16]
 107:Core/Src/stm32f4xx_hal_msp.c ****     HAL_GPIO_Init(GPIOC, &GPIO_InitStruct);
 196              		.loc 1 107 5 is_stmt 1 view .LVU44
 107:Core/Src/stm32f4xx_hal_msp.c ****     HAL_GPIO_Init(GPIOC, &GPIO_InitStruct);
 197              		.loc 1 107 26 is_stmt 0 view .LVU45
 198 006c 0594     		str	r4, [sp, #20]
 108:Core/Src/stm32f4xx_hal_msp.c **** 
 199              		.loc 1 108 5 is_stmt 1 view .LVU46
 200 006e 03A9     		add	r1, sp, #12
ARM GAS  /tmp/ccvhwIcY.s 			page 7


 201 0070 0548     		ldr	r0, .L9
 202              	.LVL3:
 108:Core/Src/stm32f4xx_hal_msp.c **** 
 203              		.loc 1 108 5 is_stmt 0 view .LVU47
 204 0072 FFF7FEFF 		bl	HAL_GPIO_Init
 205              	.LVL4:
 110:Core/Src/stm32f4xx_hal_msp.c ****     GPIO_InitStruct.Mode = GPIO_MODE_ANALOG;
 206              		.loc 1 110 5 is_stmt 1 view .LVU48
 110:Core/Src/stm32f4xx_hal_msp.c ****     GPIO_InitStruct.Mode = GPIO_MODE_ANALOG;
 207              		.loc 1 110 25 is_stmt 0 view .LVU49
 208 0076 0123     		movs	r3, #1
 209 0078 0393     		str	r3, [sp, #12]
 111:Core/Src/stm32f4xx_hal_msp.c ****     GPIO_InitStruct.Pull = GPIO_NOPULL;
 210              		.loc 1 111 5 is_stmt 1 view .LVU50
 111:Core/Src/stm32f4xx_hal_msp.c ****     GPIO_InitStruct.Pull = GPIO_NOPULL;
 211              		.loc 1 111 26 is_stmt 0 view .LVU51
 212 007a 0495     		str	r5, [sp, #16]
 112:Core/Src/stm32f4xx_hal_msp.c ****     HAL_GPIO_Init(GPIOA, &GPIO_InitStruct);
 213              		.loc 1 112 5 is_stmt 1 view .LVU52
 112:Core/Src/stm32f4xx_hal_msp.c ****     HAL_GPIO_Init(GPIOA, &GPIO_InitStruct);
 214              		.loc 1 112 26 is_stmt 0 view .LVU53
 215 007c 0594     		str	r4, [sp, #20]
 113:Core/Src/stm32f4xx_hal_msp.c **** 
 216              		.loc 1 113 5 is_stmt 1 view .LVU54
 217 007e 03A9     		add	r1, sp, #12
 218 0080 0248     		ldr	r0, .L9+4
 219 0082 FFF7FEFF 		bl	HAL_GPIO_Init
 220              	.LVL5:
 221              		.loc 1 120 1 is_stmt 0 view .LVU55
 222 0086 CAE7     		b	.L5
 223              	.L10:
 224              		.align	2
 225              	.L9:
 226 0088 00080240 		.word	1073874944
 227 008c 00000240 		.word	1073872896
 228              		.cfi_endproc
 229              	.LFE131:
 231              		.section	.text.HAL_ADC_MspDeInit,"ax",%progbits
 232              		.align	1
 233              		.global	HAL_ADC_MspDeInit
 234              		.syntax unified
 235              		.thumb
 236              		.thumb_func
 237              		.fpu fpv4-sp-d16
 239              	HAL_ADC_MspDeInit:
 240              	.LVL6:
 241              	.LFB132:
 121:Core/Src/stm32f4xx_hal_msp.c **** 
 122:Core/Src/stm32f4xx_hal_msp.c **** /**
 123:Core/Src/stm32f4xx_hal_msp.c **** * @brief ADC MSP De-Initialization
 124:Core/Src/stm32f4xx_hal_msp.c **** * This function freeze the hardware resources used in this example
 125:Core/Src/stm32f4xx_hal_msp.c **** * @param hadc: ADC handle pointer
 126:Core/Src/stm32f4xx_hal_msp.c **** * @retval None
 127:Core/Src/stm32f4xx_hal_msp.c **** */
 128:Core/Src/stm32f4xx_hal_msp.c **** void HAL_ADC_MspDeInit(ADC_HandleTypeDef* hadc)
 129:Core/Src/stm32f4xx_hal_msp.c **** {
 242              		.loc 1 129 1 is_stmt 1 view -0
ARM GAS  /tmp/ccvhwIcY.s 			page 8


 243              		.cfi_startproc
 244              		@ args = 0, pretend = 0, frame = 0
 245              		@ frame_needed = 0, uses_anonymous_args = 0
 246              		.loc 1 129 1 is_stmt 0 view .LVU57
 247 0000 08B5     		push	{r3, lr}
 248              	.LCFI6:
 249              		.cfi_def_cfa_offset 8
 250              		.cfi_offset 3, -8
 251              		.cfi_offset 14, -4
 130:Core/Src/stm32f4xx_hal_msp.c ****   if(hadc->Instance==ADC1)
 252              		.loc 1 130 3 is_stmt 1 view .LVU58
 253              		.loc 1 130 10 is_stmt 0 view .LVU59
 254 0002 0268     		ldr	r2, [r0]
 255              		.loc 1 130 5 view .LVU60
 256 0004 084B     		ldr	r3, .L15
 257 0006 9A42     		cmp	r2, r3
 258 0008 00D0     		beq	.L14
 259              	.LVL7:
 260              	.L11:
 131:Core/Src/stm32f4xx_hal_msp.c ****   {
 132:Core/Src/stm32f4xx_hal_msp.c ****   /* USER CODE BEGIN ADC1_MspDeInit 0 */
 133:Core/Src/stm32f4xx_hal_msp.c **** 
 134:Core/Src/stm32f4xx_hal_msp.c ****   /* USER CODE END ADC1_MspDeInit 0 */
 135:Core/Src/stm32f4xx_hal_msp.c ****     /* Peripheral clock disable */
 136:Core/Src/stm32f4xx_hal_msp.c ****     __HAL_RCC_ADC1_CLK_DISABLE();
 137:Core/Src/stm32f4xx_hal_msp.c **** 
 138:Core/Src/stm32f4xx_hal_msp.c ****     /**ADC1 GPIO Configuration
 139:Core/Src/stm32f4xx_hal_msp.c ****     PC0     ------> ADC1_IN10
 140:Core/Src/stm32f4xx_hal_msp.c ****     PC1     ------> ADC1_IN11
 141:Core/Src/stm32f4xx_hal_msp.c ****     PC2     ------> ADC1_IN12
 142:Core/Src/stm32f4xx_hal_msp.c ****     PA0-WKUP     ------> ADC1_IN0
 143:Core/Src/stm32f4xx_hal_msp.c ****     */
 144:Core/Src/stm32f4xx_hal_msp.c ****     HAL_GPIO_DeInit(GPIOC, GPIO_PIN_0|GPIO_PIN_1|GPIO_PIN_2);
 145:Core/Src/stm32f4xx_hal_msp.c **** 
 146:Core/Src/stm32f4xx_hal_msp.c ****     HAL_GPIO_DeInit(GPIOA, GPIO_PIN_0);
 147:Core/Src/stm32f4xx_hal_msp.c **** 
 148:Core/Src/stm32f4xx_hal_msp.c ****   /* USER CODE BEGIN ADC1_MspDeInit 1 */
 149:Core/Src/stm32f4xx_hal_msp.c **** 
 150:Core/Src/stm32f4xx_hal_msp.c ****   /* USER CODE END ADC1_MspDeInit 1 */
 151:Core/Src/stm32f4xx_hal_msp.c ****   }
 152:Core/Src/stm32f4xx_hal_msp.c **** 
 153:Core/Src/stm32f4xx_hal_msp.c **** }
 261              		.loc 1 153 1 view .LVU61
 262 000a 08BD     		pop	{r3, pc}
 263              	.LVL8:
 264              	.L14:
 136:Core/Src/stm32f4xx_hal_msp.c **** 
 265              		.loc 1 136 5 is_stmt 1 view .LVU62
 266 000c 074A     		ldr	r2, .L15+4
 267 000e 536C     		ldr	r3, [r2, #68]
 268 0010 23F48073 		bic	r3, r3, #256
 269 0014 5364     		str	r3, [r2, #68]
 144:Core/Src/stm32f4xx_hal_msp.c **** 
 270              		.loc 1 144 5 view .LVU63
 271 0016 0721     		movs	r1, #7
 272 0018 0548     		ldr	r0, .L15+8
 273              	.LVL9:
ARM GAS  /tmp/ccvhwIcY.s 			page 9


 144:Core/Src/stm32f4xx_hal_msp.c **** 
 274              		.loc 1 144 5 is_stmt 0 view .LVU64
 275 001a FFF7FEFF 		bl	HAL_GPIO_DeInit
 276              	.LVL10:
 146:Core/Src/stm32f4xx_hal_msp.c **** 
 277              		.loc 1 146 5 is_stmt 1 view .LVU65
 278 001e 0121     		movs	r1, #1
 279 0020 0448     		ldr	r0, .L15+12
 280 0022 FFF7FEFF 		bl	HAL_GPIO_DeInit
 281              	.LVL11:
 282              		.loc 1 153 1 is_stmt 0 view .LVU66
 283 0026 F0E7     		b	.L11
 284              	.L16:
 285              		.align	2
 286              	.L15:
 287 0028 00200140 		.word	1073815552
 288 002c 00380240 		.word	1073887232
 289 0030 00080240 		.word	1073874944
 290 0034 00000240 		.word	1073872896
 291              		.cfi_endproc
 292              	.LFE132:
 294              		.section	.text.HAL_I2C_MspInit,"ax",%progbits
 295              		.align	1
 296              		.global	HAL_I2C_MspInit
 297              		.syntax unified
 298              		.thumb
 299              		.thumb_func
 300              		.fpu fpv4-sp-d16
 302              	HAL_I2C_MspInit:
 303              	.LVL12:
 304              	.LFB133:
 154:Core/Src/stm32f4xx_hal_msp.c **** 
 155:Core/Src/stm32f4xx_hal_msp.c **** /**
 156:Core/Src/stm32f4xx_hal_msp.c **** * @brief I2C MSP Initialization
 157:Core/Src/stm32f4xx_hal_msp.c **** * This function configures the hardware resources used in this example
 158:Core/Src/stm32f4xx_hal_msp.c **** * @param hi2c: I2C handle pointer
 159:Core/Src/stm32f4xx_hal_msp.c **** * @retval None
 160:Core/Src/stm32f4xx_hal_msp.c **** */
 161:Core/Src/stm32f4xx_hal_msp.c **** void HAL_I2C_MspInit(I2C_HandleTypeDef* hi2c)
 162:Core/Src/stm32f4xx_hal_msp.c **** {
 305              		.loc 1 162 1 is_stmt 1 view -0
 306              		.cfi_startproc
 307              		@ args = 0, pretend = 0, frame = 40
 308              		@ frame_needed = 0, uses_anonymous_args = 0
 309              		.loc 1 162 1 is_stmt 0 view .LVU68
 310 0000 2DE9F043 		push	{r4, r5, r6, r7, r8, r9, lr}
 311              	.LCFI7:
 312              		.cfi_def_cfa_offset 28
 313              		.cfi_offset 4, -28
 314              		.cfi_offset 5, -24
 315              		.cfi_offset 6, -20
 316              		.cfi_offset 7, -16
 317              		.cfi_offset 8, -12
 318              		.cfi_offset 9, -8
 319              		.cfi_offset 14, -4
 320 0004 8BB0     		sub	sp, sp, #44
 321              	.LCFI8:
ARM GAS  /tmp/ccvhwIcY.s 			page 10


 322              		.cfi_def_cfa_offset 72
 163:Core/Src/stm32f4xx_hal_msp.c ****   GPIO_InitTypeDef GPIO_InitStruct = {0};
 323              		.loc 1 163 3 is_stmt 1 view .LVU69
 324              		.loc 1 163 20 is_stmt 0 view .LVU70
 325 0006 0023     		movs	r3, #0
 326 0008 0593     		str	r3, [sp, #20]
 327 000a 0693     		str	r3, [sp, #24]
 328 000c 0793     		str	r3, [sp, #28]
 329 000e 0893     		str	r3, [sp, #32]
 330 0010 0993     		str	r3, [sp, #36]
 164:Core/Src/stm32f4xx_hal_msp.c ****   if(hi2c->Instance==I2C1)
 331              		.loc 1 164 3 is_stmt 1 view .LVU71
 332              		.loc 1 164 10 is_stmt 0 view .LVU72
 333 0012 0368     		ldr	r3, [r0]
 334              		.loc 1 164 5 view .LVU73
 335 0014 364A     		ldr	r2, .L23
 336 0016 9342     		cmp	r3, r2
 337 0018 05D0     		beq	.L21
 165:Core/Src/stm32f4xx_hal_msp.c ****   {
 166:Core/Src/stm32f4xx_hal_msp.c ****   /* USER CODE BEGIN I2C1_MspInit 0 */
 167:Core/Src/stm32f4xx_hal_msp.c **** 
 168:Core/Src/stm32f4xx_hal_msp.c ****   /* USER CODE END I2C1_MspInit 0 */
 169:Core/Src/stm32f4xx_hal_msp.c **** 
 170:Core/Src/stm32f4xx_hal_msp.c ****     __HAL_RCC_GPIOB_CLK_ENABLE();
 171:Core/Src/stm32f4xx_hal_msp.c ****     /**I2C1 GPIO Configuration
 172:Core/Src/stm32f4xx_hal_msp.c ****     PB6     ------> I2C1_SCL
 173:Core/Src/stm32f4xx_hal_msp.c ****     PB7     ------> I2C1_SDA
 174:Core/Src/stm32f4xx_hal_msp.c ****     */
 175:Core/Src/stm32f4xx_hal_msp.c ****     GPIO_InitStruct.Pin = GPIO_PIN_6|GPIO_PIN_7;
 176:Core/Src/stm32f4xx_hal_msp.c ****     GPIO_InitStruct.Mode = GPIO_MODE_AF_OD;
 177:Core/Src/stm32f4xx_hal_msp.c ****     GPIO_InitStruct.Pull = GPIO_PULLUP;
 178:Core/Src/stm32f4xx_hal_msp.c ****     GPIO_InitStruct.Speed = GPIO_SPEED_FREQ_VERY_HIGH;
 179:Core/Src/stm32f4xx_hal_msp.c ****     GPIO_InitStruct.Alternate = GPIO_AF4_I2C1;
 180:Core/Src/stm32f4xx_hal_msp.c ****     HAL_GPIO_Init(GPIOB, &GPIO_InitStruct);
 181:Core/Src/stm32f4xx_hal_msp.c **** 
 182:Core/Src/stm32f4xx_hal_msp.c ****     /* Peripheral clock enable */
 183:Core/Src/stm32f4xx_hal_msp.c ****     __HAL_RCC_I2C1_CLK_ENABLE();
 184:Core/Src/stm32f4xx_hal_msp.c ****   /* USER CODE BEGIN I2C1_MspInit 1 */
 185:Core/Src/stm32f4xx_hal_msp.c **** 
 186:Core/Src/stm32f4xx_hal_msp.c ****   /* USER CODE END I2C1_MspInit 1 */
 187:Core/Src/stm32f4xx_hal_msp.c ****   }
 188:Core/Src/stm32f4xx_hal_msp.c ****   else if(hi2c->Instance==I2C3)
 338              		.loc 1 188 8 is_stmt 1 view .LVU74
 339              		.loc 1 188 10 is_stmt 0 view .LVU75
 340 001a 364A     		ldr	r2, .L23+4
 341 001c 9342     		cmp	r3, r2
 342 001e 27D0     		beq	.L22
 343              	.LVL13:
 344              	.L17:
 189:Core/Src/stm32f4xx_hal_msp.c ****   {
 190:Core/Src/stm32f4xx_hal_msp.c ****   /* USER CODE BEGIN I2C3_MspInit 0 */
 191:Core/Src/stm32f4xx_hal_msp.c **** 
 192:Core/Src/stm32f4xx_hal_msp.c ****   /* USER CODE END I2C3_MspInit 0 */
 193:Core/Src/stm32f4xx_hal_msp.c **** 
 194:Core/Src/stm32f4xx_hal_msp.c ****     __HAL_RCC_GPIOA_CLK_ENABLE();
 195:Core/Src/stm32f4xx_hal_msp.c ****     __HAL_RCC_GPIOB_CLK_ENABLE();
 196:Core/Src/stm32f4xx_hal_msp.c ****     /**I2C3 GPIO Configuration
ARM GAS  /tmp/ccvhwIcY.s 			page 11


 197:Core/Src/stm32f4xx_hal_msp.c ****     PA8     ------> I2C3_SCL
 198:Core/Src/stm32f4xx_hal_msp.c ****     PB8     ------> I2C3_SDA
 199:Core/Src/stm32f4xx_hal_msp.c ****     */
 200:Core/Src/stm32f4xx_hal_msp.c ****     GPIO_InitStruct.Pin = GPIO_PIN_8;
 201:Core/Src/stm32f4xx_hal_msp.c ****     GPIO_InitStruct.Mode = GPIO_MODE_AF_OD;
 202:Core/Src/stm32f4xx_hal_msp.c ****     GPIO_InitStruct.Pull = GPIO_PULLUP;
 203:Core/Src/stm32f4xx_hal_msp.c ****     GPIO_InitStruct.Speed = GPIO_SPEED_FREQ_VERY_HIGH;
 204:Core/Src/stm32f4xx_hal_msp.c ****     GPIO_InitStruct.Alternate = GPIO_AF4_I2C3;
 205:Core/Src/stm32f4xx_hal_msp.c ****     HAL_GPIO_Init(GPIOA, &GPIO_InitStruct);
 206:Core/Src/stm32f4xx_hal_msp.c **** 
 207:Core/Src/stm32f4xx_hal_msp.c ****     GPIO_InitStruct.Pin = GPIO_PIN_8;
 208:Core/Src/stm32f4xx_hal_msp.c ****     GPIO_InitStruct.Mode = GPIO_MODE_AF_OD;
 209:Core/Src/stm32f4xx_hal_msp.c ****     GPIO_InitStruct.Pull = GPIO_PULLUP;
 210:Core/Src/stm32f4xx_hal_msp.c ****     GPIO_InitStruct.Speed = GPIO_SPEED_FREQ_VERY_HIGH;
 211:Core/Src/stm32f4xx_hal_msp.c ****     GPIO_InitStruct.Alternate = GPIO_AF9_I2C3;
 212:Core/Src/stm32f4xx_hal_msp.c ****     HAL_GPIO_Init(GPIOB, &GPIO_InitStruct);
 213:Core/Src/stm32f4xx_hal_msp.c **** 
 214:Core/Src/stm32f4xx_hal_msp.c ****     /* Peripheral clock enable */
 215:Core/Src/stm32f4xx_hal_msp.c ****     __HAL_RCC_I2C3_CLK_ENABLE();
 216:Core/Src/stm32f4xx_hal_msp.c ****   /* USER CODE BEGIN I2C3_MspInit 1 */
 217:Core/Src/stm32f4xx_hal_msp.c **** 
 218:Core/Src/stm32f4xx_hal_msp.c ****   /* USER CODE END I2C3_MspInit 1 */
 219:Core/Src/stm32f4xx_hal_msp.c ****   }
 220:Core/Src/stm32f4xx_hal_msp.c **** 
 221:Core/Src/stm32f4xx_hal_msp.c **** }
 345              		.loc 1 221 1 view .LVU76
 346 0020 0BB0     		add	sp, sp, #44
 347              	.LCFI9:
 348              		.cfi_remember_state
 349              		.cfi_def_cfa_offset 28
 350              		@ sp needed
 351 0022 BDE8F083 		pop	{r4, r5, r6, r7, r8, r9, pc}
 352              	.LVL14:
 353              	.L21:
 354              	.LCFI10:
 355              		.cfi_restore_state
 170:Core/Src/stm32f4xx_hal_msp.c ****     /**I2C1 GPIO Configuration
 356              		.loc 1 170 5 is_stmt 1 view .LVU77
 357              	.LBB7:
 170:Core/Src/stm32f4xx_hal_msp.c ****     /**I2C1 GPIO Configuration
 358              		.loc 1 170 5 view .LVU78
 359 0026 0025     		movs	r5, #0
 360 0028 0095     		str	r5, [sp]
 170:Core/Src/stm32f4xx_hal_msp.c ****     /**I2C1 GPIO Configuration
 361              		.loc 1 170 5 view .LVU79
 362 002a 334C     		ldr	r4, .L23+8
 363 002c 236B     		ldr	r3, [r4, #48]
 364 002e 43F00203 		orr	r3, r3, #2
 365 0032 2363     		str	r3, [r4, #48]
 170:Core/Src/stm32f4xx_hal_msp.c ****     /**I2C1 GPIO Configuration
 366              		.loc 1 170 5 view .LVU80
 367 0034 236B     		ldr	r3, [r4, #48]
 368 0036 03F00203 		and	r3, r3, #2
 369 003a 0093     		str	r3, [sp]
 170:Core/Src/stm32f4xx_hal_msp.c ****     /**I2C1 GPIO Configuration
 370              		.loc 1 170 5 view .LVU81
 371 003c 009B     		ldr	r3, [sp]
ARM GAS  /tmp/ccvhwIcY.s 			page 12


 372              	.LBE7:
 170:Core/Src/stm32f4xx_hal_msp.c ****     /**I2C1 GPIO Configuration
 373              		.loc 1 170 5 view .LVU82
 175:Core/Src/stm32f4xx_hal_msp.c ****     GPIO_InitStruct.Mode = GPIO_MODE_AF_OD;
 374              		.loc 1 175 5 view .LVU83
 175:Core/Src/stm32f4xx_hal_msp.c ****     GPIO_InitStruct.Mode = GPIO_MODE_AF_OD;
 375              		.loc 1 175 25 is_stmt 0 view .LVU84
 376 003e C023     		movs	r3, #192
 377 0040 0593     		str	r3, [sp, #20]
 176:Core/Src/stm32f4xx_hal_msp.c ****     GPIO_InitStruct.Pull = GPIO_PULLUP;
 378              		.loc 1 176 5 is_stmt 1 view .LVU85
 176:Core/Src/stm32f4xx_hal_msp.c ****     GPIO_InitStruct.Pull = GPIO_PULLUP;
 379              		.loc 1 176 26 is_stmt 0 view .LVU86
 380 0042 1223     		movs	r3, #18
 381 0044 0693     		str	r3, [sp, #24]
 177:Core/Src/stm32f4xx_hal_msp.c ****     GPIO_InitStruct.Speed = GPIO_SPEED_FREQ_VERY_HIGH;
 382              		.loc 1 177 5 is_stmt 1 view .LVU87
 177:Core/Src/stm32f4xx_hal_msp.c ****     GPIO_InitStruct.Speed = GPIO_SPEED_FREQ_VERY_HIGH;
 383              		.loc 1 177 26 is_stmt 0 view .LVU88
 384 0046 0123     		movs	r3, #1
 385 0048 0793     		str	r3, [sp, #28]
 178:Core/Src/stm32f4xx_hal_msp.c ****     GPIO_InitStruct.Alternate = GPIO_AF4_I2C1;
 386              		.loc 1 178 5 is_stmt 1 view .LVU89
 178:Core/Src/stm32f4xx_hal_msp.c ****     GPIO_InitStruct.Alternate = GPIO_AF4_I2C1;
 387              		.loc 1 178 27 is_stmt 0 view .LVU90
 388 004a 0323     		movs	r3, #3
 389 004c 0893     		str	r3, [sp, #32]
 179:Core/Src/stm32f4xx_hal_msp.c ****     HAL_GPIO_Init(GPIOB, &GPIO_InitStruct);
 390              		.loc 1 179 5 is_stmt 1 view .LVU91
 179:Core/Src/stm32f4xx_hal_msp.c ****     HAL_GPIO_Init(GPIOB, &GPIO_InitStruct);
 391              		.loc 1 179 31 is_stmt 0 view .LVU92
 392 004e 0423     		movs	r3, #4
 393 0050 0993     		str	r3, [sp, #36]
 180:Core/Src/stm32f4xx_hal_msp.c **** 
 394              		.loc 1 180 5 is_stmt 1 view .LVU93
 395 0052 05A9     		add	r1, sp, #20
 396 0054 2948     		ldr	r0, .L23+12
 397              	.LVL15:
 180:Core/Src/stm32f4xx_hal_msp.c **** 
 398              		.loc 1 180 5 is_stmt 0 view .LVU94
 399 0056 FFF7FEFF 		bl	HAL_GPIO_Init
 400              	.LVL16:
 183:Core/Src/stm32f4xx_hal_msp.c ****   /* USER CODE BEGIN I2C1_MspInit 1 */
 401              		.loc 1 183 5 is_stmt 1 view .LVU95
 402              	.LBB8:
 183:Core/Src/stm32f4xx_hal_msp.c ****   /* USER CODE BEGIN I2C1_MspInit 1 */
 403              		.loc 1 183 5 view .LVU96
 404 005a 0195     		str	r5, [sp, #4]
 183:Core/Src/stm32f4xx_hal_msp.c ****   /* USER CODE BEGIN I2C1_MspInit 1 */
 405              		.loc 1 183 5 view .LVU97
 406 005c 236C     		ldr	r3, [r4, #64]
 407 005e 43F40013 		orr	r3, r3, #2097152
 408 0062 2364     		str	r3, [r4, #64]
 183:Core/Src/stm32f4xx_hal_msp.c ****   /* USER CODE BEGIN I2C1_MspInit 1 */
 409              		.loc 1 183 5 view .LVU98
 410 0064 236C     		ldr	r3, [r4, #64]
 411 0066 03F40013 		and	r3, r3, #2097152
ARM GAS  /tmp/ccvhwIcY.s 			page 13


 412 006a 0193     		str	r3, [sp, #4]
 183:Core/Src/stm32f4xx_hal_msp.c ****   /* USER CODE BEGIN I2C1_MspInit 1 */
 413              		.loc 1 183 5 view .LVU99
 414 006c 019B     		ldr	r3, [sp, #4]
 415              	.LBE8:
 183:Core/Src/stm32f4xx_hal_msp.c ****   /* USER CODE BEGIN I2C1_MspInit 1 */
 416              		.loc 1 183 5 view .LVU100
 417 006e D7E7     		b	.L17
 418              	.LVL17:
 419              	.L22:
 194:Core/Src/stm32f4xx_hal_msp.c ****     __HAL_RCC_GPIOB_CLK_ENABLE();
 420              		.loc 1 194 5 view .LVU101
 421              	.LBB9:
 194:Core/Src/stm32f4xx_hal_msp.c ****     __HAL_RCC_GPIOB_CLK_ENABLE();
 422              		.loc 1 194 5 view .LVU102
 423 0070 0025     		movs	r5, #0
 424 0072 0295     		str	r5, [sp, #8]
 194:Core/Src/stm32f4xx_hal_msp.c ****     __HAL_RCC_GPIOB_CLK_ENABLE();
 425              		.loc 1 194 5 view .LVU103
 426 0074 204C     		ldr	r4, .L23+8
 427 0076 236B     		ldr	r3, [r4, #48]
 428 0078 43F00103 		orr	r3, r3, #1
 429 007c 2363     		str	r3, [r4, #48]
 194:Core/Src/stm32f4xx_hal_msp.c ****     __HAL_RCC_GPIOB_CLK_ENABLE();
 430              		.loc 1 194 5 view .LVU104
 431 007e 236B     		ldr	r3, [r4, #48]
 432 0080 03F00103 		and	r3, r3, #1
 433 0084 0293     		str	r3, [sp, #8]
 194:Core/Src/stm32f4xx_hal_msp.c ****     __HAL_RCC_GPIOB_CLK_ENABLE();
 434              		.loc 1 194 5 view .LVU105
 435 0086 029B     		ldr	r3, [sp, #8]
 436              	.LBE9:
 194:Core/Src/stm32f4xx_hal_msp.c ****     __HAL_RCC_GPIOB_CLK_ENABLE();
 437              		.loc 1 194 5 view .LVU106
 195:Core/Src/stm32f4xx_hal_msp.c ****     /**I2C3 GPIO Configuration
 438              		.loc 1 195 5 view .LVU107
 439              	.LBB10:
 195:Core/Src/stm32f4xx_hal_msp.c ****     /**I2C3 GPIO Configuration
 440              		.loc 1 195 5 view .LVU108
 441 0088 0395     		str	r5, [sp, #12]
 195:Core/Src/stm32f4xx_hal_msp.c ****     /**I2C3 GPIO Configuration
 442              		.loc 1 195 5 view .LVU109
 443 008a 236B     		ldr	r3, [r4, #48]
 444 008c 43F00203 		orr	r3, r3, #2
 445 0090 2363     		str	r3, [r4, #48]
 195:Core/Src/stm32f4xx_hal_msp.c ****     /**I2C3 GPIO Configuration
 446              		.loc 1 195 5 view .LVU110
 447 0092 236B     		ldr	r3, [r4, #48]
 448 0094 03F00203 		and	r3, r3, #2
 449 0098 0393     		str	r3, [sp, #12]
 195:Core/Src/stm32f4xx_hal_msp.c ****     /**I2C3 GPIO Configuration
 450              		.loc 1 195 5 view .LVU111
 451 009a 039B     		ldr	r3, [sp, #12]
 452              	.LBE10:
 195:Core/Src/stm32f4xx_hal_msp.c ****     /**I2C3 GPIO Configuration
 453              		.loc 1 195 5 view .LVU112
 200:Core/Src/stm32f4xx_hal_msp.c ****     GPIO_InitStruct.Mode = GPIO_MODE_AF_OD;
ARM GAS  /tmp/ccvhwIcY.s 			page 14


 454              		.loc 1 200 5 view .LVU113
 200:Core/Src/stm32f4xx_hal_msp.c ****     GPIO_InitStruct.Mode = GPIO_MODE_AF_OD;
 455              		.loc 1 200 25 is_stmt 0 view .LVU114
 456 009c 4FF48079 		mov	r9, #256
 457 00a0 CDF81490 		str	r9, [sp, #20]
 201:Core/Src/stm32f4xx_hal_msp.c ****     GPIO_InitStruct.Pull = GPIO_PULLUP;
 458              		.loc 1 201 5 is_stmt 1 view .LVU115
 201:Core/Src/stm32f4xx_hal_msp.c ****     GPIO_InitStruct.Pull = GPIO_PULLUP;
 459              		.loc 1 201 26 is_stmt 0 view .LVU116
 460 00a4 4FF01208 		mov	r8, #18
 461 00a8 CDF81880 		str	r8, [sp, #24]
 202:Core/Src/stm32f4xx_hal_msp.c ****     GPIO_InitStruct.Speed = GPIO_SPEED_FREQ_VERY_HIGH;
 462              		.loc 1 202 5 is_stmt 1 view .LVU117
 202:Core/Src/stm32f4xx_hal_msp.c ****     GPIO_InitStruct.Speed = GPIO_SPEED_FREQ_VERY_HIGH;
 463              		.loc 1 202 26 is_stmt 0 view .LVU118
 464 00ac 0127     		movs	r7, #1
 465 00ae 0797     		str	r7, [sp, #28]
 203:Core/Src/stm32f4xx_hal_msp.c ****     GPIO_InitStruct.Alternate = GPIO_AF4_I2C3;
 466              		.loc 1 203 5 is_stmt 1 view .LVU119
 203:Core/Src/stm32f4xx_hal_msp.c ****     GPIO_InitStruct.Alternate = GPIO_AF4_I2C3;
 467              		.loc 1 203 27 is_stmt 0 view .LVU120
 468 00b0 0326     		movs	r6, #3
 469 00b2 0896     		str	r6, [sp, #32]
 204:Core/Src/stm32f4xx_hal_msp.c ****     HAL_GPIO_Init(GPIOA, &GPIO_InitStruct);
 470              		.loc 1 204 5 is_stmt 1 view .LVU121
 204:Core/Src/stm32f4xx_hal_msp.c ****     HAL_GPIO_Init(GPIOA, &GPIO_InitStruct);
 471              		.loc 1 204 31 is_stmt 0 view .LVU122
 472 00b4 0423     		movs	r3, #4
 473 00b6 0993     		str	r3, [sp, #36]
 205:Core/Src/stm32f4xx_hal_msp.c **** 
 474              		.loc 1 205 5 is_stmt 1 view .LVU123
 475 00b8 05A9     		add	r1, sp, #20
 476 00ba 1148     		ldr	r0, .L23+16
 477              	.LVL18:
 205:Core/Src/stm32f4xx_hal_msp.c **** 
 478              		.loc 1 205 5 is_stmt 0 view .LVU124
 479 00bc FFF7FEFF 		bl	HAL_GPIO_Init
 480              	.LVL19:
 207:Core/Src/stm32f4xx_hal_msp.c ****     GPIO_InitStruct.Mode = GPIO_MODE_AF_OD;
 481              		.loc 1 207 5 is_stmt 1 view .LVU125
 207:Core/Src/stm32f4xx_hal_msp.c ****     GPIO_InitStruct.Mode = GPIO_MODE_AF_OD;
 482              		.loc 1 207 25 is_stmt 0 view .LVU126
 483 00c0 CDF81490 		str	r9, [sp, #20]
 208:Core/Src/stm32f4xx_hal_msp.c ****     GPIO_InitStruct.Pull = GPIO_PULLUP;
 484              		.loc 1 208 5 is_stmt 1 view .LVU127
 208:Core/Src/stm32f4xx_hal_msp.c ****     GPIO_InitStruct.Pull = GPIO_PULLUP;
 485              		.loc 1 208 26 is_stmt 0 view .LVU128
 486 00c4 CDF81880 		str	r8, [sp, #24]
 209:Core/Src/stm32f4xx_hal_msp.c ****     GPIO_InitStruct.Speed = GPIO_SPEED_FREQ_VERY_HIGH;
 487              		.loc 1 209 5 is_stmt 1 view .LVU129
 209:Core/Src/stm32f4xx_hal_msp.c ****     GPIO_InitStruct.Speed = GPIO_SPEED_FREQ_VERY_HIGH;
 488              		.loc 1 209 26 is_stmt 0 view .LVU130
 489 00c8 0797     		str	r7, [sp, #28]
 210:Core/Src/stm32f4xx_hal_msp.c ****     GPIO_InitStruct.Alternate = GPIO_AF9_I2C3;
 490              		.loc 1 210 5 is_stmt 1 view .LVU131
 210:Core/Src/stm32f4xx_hal_msp.c ****     GPIO_InitStruct.Alternate = GPIO_AF9_I2C3;
 491              		.loc 1 210 27 is_stmt 0 view .LVU132
ARM GAS  /tmp/ccvhwIcY.s 			page 15


 492 00ca 0896     		str	r6, [sp, #32]
 211:Core/Src/stm32f4xx_hal_msp.c ****     HAL_GPIO_Init(GPIOB, &GPIO_InitStruct);
 493              		.loc 1 211 5 is_stmt 1 view .LVU133
 211:Core/Src/stm32f4xx_hal_msp.c ****     HAL_GPIO_Init(GPIOB, &GPIO_InitStruct);
 494              		.loc 1 211 31 is_stmt 0 view .LVU134
 495 00cc 0923     		movs	r3, #9
 496 00ce 0993     		str	r3, [sp, #36]
 212:Core/Src/stm32f4xx_hal_msp.c **** 
 497              		.loc 1 212 5 is_stmt 1 view .LVU135
 498 00d0 05A9     		add	r1, sp, #20
 499 00d2 0A48     		ldr	r0, .L23+12
 500 00d4 FFF7FEFF 		bl	HAL_GPIO_Init
 501              	.LVL20:
 215:Core/Src/stm32f4xx_hal_msp.c ****   /* USER CODE BEGIN I2C3_MspInit 1 */
 502              		.loc 1 215 5 view .LVU136
 503              	.LBB11:
 215:Core/Src/stm32f4xx_hal_msp.c ****   /* USER CODE BEGIN I2C3_MspInit 1 */
 504              		.loc 1 215 5 view .LVU137
 505 00d8 0495     		str	r5, [sp, #16]
 215:Core/Src/stm32f4xx_hal_msp.c ****   /* USER CODE BEGIN I2C3_MspInit 1 */
 506              		.loc 1 215 5 view .LVU138
 507 00da 236C     		ldr	r3, [r4, #64]
 508 00dc 43F40003 		orr	r3, r3, #8388608
 509 00e0 2364     		str	r3, [r4, #64]
 215:Core/Src/stm32f4xx_hal_msp.c ****   /* USER CODE BEGIN I2C3_MspInit 1 */
 510              		.loc 1 215 5 view .LVU139
 511 00e2 236C     		ldr	r3, [r4, #64]
 512 00e4 03F40003 		and	r3, r3, #8388608
 513 00e8 0493     		str	r3, [sp, #16]
 215:Core/Src/stm32f4xx_hal_msp.c ****   /* USER CODE BEGIN I2C3_MspInit 1 */
 514              		.loc 1 215 5 view .LVU140
 515 00ea 049B     		ldr	r3, [sp, #16]
 516              	.LBE11:
 215:Core/Src/stm32f4xx_hal_msp.c ****   /* USER CODE BEGIN I2C3_MspInit 1 */
 517              		.loc 1 215 5 view .LVU141
 518              		.loc 1 221 1 is_stmt 0 view .LVU142
 519 00ec 98E7     		b	.L17
 520              	.L24:
 521 00ee 00BF     		.align	2
 522              	.L23:
 523 00f0 00540040 		.word	1073763328
 524 00f4 005C0040 		.word	1073765376
 525 00f8 00380240 		.word	1073887232
 526 00fc 00040240 		.word	1073873920
 527 0100 00000240 		.word	1073872896
 528              		.cfi_endproc
 529              	.LFE133:
 531              		.section	.text.HAL_I2C_MspDeInit,"ax",%progbits
 532              		.align	1
 533              		.global	HAL_I2C_MspDeInit
 534              		.syntax unified
 535              		.thumb
 536              		.thumb_func
 537              		.fpu fpv4-sp-d16
 539              	HAL_I2C_MspDeInit:
 540              	.LVL21:
 541              	.LFB134:
ARM GAS  /tmp/ccvhwIcY.s 			page 16


 222:Core/Src/stm32f4xx_hal_msp.c **** 
 223:Core/Src/stm32f4xx_hal_msp.c **** /**
 224:Core/Src/stm32f4xx_hal_msp.c **** * @brief I2C MSP De-Initialization
 225:Core/Src/stm32f4xx_hal_msp.c **** * This function freeze the hardware resources used in this example
 226:Core/Src/stm32f4xx_hal_msp.c **** * @param hi2c: I2C handle pointer
 227:Core/Src/stm32f4xx_hal_msp.c **** * @retval None
 228:Core/Src/stm32f4xx_hal_msp.c **** */
 229:Core/Src/stm32f4xx_hal_msp.c **** void HAL_I2C_MspDeInit(I2C_HandleTypeDef* hi2c)
 230:Core/Src/stm32f4xx_hal_msp.c **** {
 542              		.loc 1 230 1 is_stmt 1 view -0
 543              		.cfi_startproc
 544              		@ args = 0, pretend = 0, frame = 0
 545              		@ frame_needed = 0, uses_anonymous_args = 0
 546              		.loc 1 230 1 is_stmt 0 view .LVU144
 547 0000 10B5     		push	{r4, lr}
 548              	.LCFI11:
 549              		.cfi_def_cfa_offset 8
 550              		.cfi_offset 4, -8
 551              		.cfi_offset 14, -4
 231:Core/Src/stm32f4xx_hal_msp.c ****   if(hi2c->Instance==I2C1)
 552              		.loc 1 231 3 is_stmt 1 view .LVU145
 553              		.loc 1 231 10 is_stmt 0 view .LVU146
 554 0002 0368     		ldr	r3, [r0]
 555              		.loc 1 231 5 view .LVU147
 556 0004 134A     		ldr	r2, .L31
 557 0006 9342     		cmp	r3, r2
 558 0008 03D0     		beq	.L29
 232:Core/Src/stm32f4xx_hal_msp.c ****   {
 233:Core/Src/stm32f4xx_hal_msp.c ****   /* USER CODE BEGIN I2C1_MspDeInit 0 */
 234:Core/Src/stm32f4xx_hal_msp.c **** 
 235:Core/Src/stm32f4xx_hal_msp.c ****   /* USER CODE END I2C1_MspDeInit 0 */
 236:Core/Src/stm32f4xx_hal_msp.c ****     /* Peripheral clock disable */
 237:Core/Src/stm32f4xx_hal_msp.c ****     __HAL_RCC_I2C1_CLK_DISABLE();
 238:Core/Src/stm32f4xx_hal_msp.c **** 
 239:Core/Src/stm32f4xx_hal_msp.c ****     /**I2C1 GPIO Configuration
 240:Core/Src/stm32f4xx_hal_msp.c ****     PB6     ------> I2C1_SCL
 241:Core/Src/stm32f4xx_hal_msp.c ****     PB7     ------> I2C1_SDA
 242:Core/Src/stm32f4xx_hal_msp.c ****     */
 243:Core/Src/stm32f4xx_hal_msp.c ****     HAL_GPIO_DeInit(GPIOB, GPIO_PIN_6);
 244:Core/Src/stm32f4xx_hal_msp.c **** 
 245:Core/Src/stm32f4xx_hal_msp.c ****     HAL_GPIO_DeInit(GPIOB, GPIO_PIN_7);
 246:Core/Src/stm32f4xx_hal_msp.c **** 
 247:Core/Src/stm32f4xx_hal_msp.c ****   /* USER CODE BEGIN I2C1_MspDeInit 1 */
 248:Core/Src/stm32f4xx_hal_msp.c **** 
 249:Core/Src/stm32f4xx_hal_msp.c ****   /* USER CODE END I2C1_MspDeInit 1 */
 250:Core/Src/stm32f4xx_hal_msp.c ****   }
 251:Core/Src/stm32f4xx_hal_msp.c ****   else if(hi2c->Instance==I2C3)
 559              		.loc 1 251 8 is_stmt 1 view .LVU148
 560              		.loc 1 251 10 is_stmt 0 view .LVU149
 561 000a 134A     		ldr	r2, .L31+4
 562 000c 9342     		cmp	r3, r2
 563 000e 10D0     		beq	.L30
 564              	.LVL22:
 565              	.L25:
 252:Core/Src/stm32f4xx_hal_msp.c ****   {
 253:Core/Src/stm32f4xx_hal_msp.c ****   /* USER CODE BEGIN I2C3_MspDeInit 0 */
 254:Core/Src/stm32f4xx_hal_msp.c **** 
ARM GAS  /tmp/ccvhwIcY.s 			page 17


 255:Core/Src/stm32f4xx_hal_msp.c ****   /* USER CODE END I2C3_MspDeInit 0 */
 256:Core/Src/stm32f4xx_hal_msp.c ****     /* Peripheral clock disable */
 257:Core/Src/stm32f4xx_hal_msp.c ****     __HAL_RCC_I2C3_CLK_DISABLE();
 258:Core/Src/stm32f4xx_hal_msp.c **** 
 259:Core/Src/stm32f4xx_hal_msp.c ****     /**I2C3 GPIO Configuration
 260:Core/Src/stm32f4xx_hal_msp.c ****     PA8     ------> I2C3_SCL
 261:Core/Src/stm32f4xx_hal_msp.c ****     PB8     ------> I2C3_SDA
 262:Core/Src/stm32f4xx_hal_msp.c ****     */
 263:Core/Src/stm32f4xx_hal_msp.c ****     HAL_GPIO_DeInit(GPIOA, GPIO_PIN_8);
 264:Core/Src/stm32f4xx_hal_msp.c **** 
 265:Core/Src/stm32f4xx_hal_msp.c ****     HAL_GPIO_DeInit(GPIOB, GPIO_PIN_8);
 266:Core/Src/stm32f4xx_hal_msp.c **** 
 267:Core/Src/stm32f4xx_hal_msp.c ****   /* USER CODE BEGIN I2C3_MspDeInit 1 */
 268:Core/Src/stm32f4xx_hal_msp.c **** 
 269:Core/Src/stm32f4xx_hal_msp.c ****   /* USER CODE END I2C3_MspDeInit 1 */
 270:Core/Src/stm32f4xx_hal_msp.c ****   }
 271:Core/Src/stm32f4xx_hal_msp.c **** 
 272:Core/Src/stm32f4xx_hal_msp.c **** }
 566              		.loc 1 272 1 view .LVU150
 567 0010 10BD     		pop	{r4, pc}
 568              	.LVL23:
 569              	.L29:
 237:Core/Src/stm32f4xx_hal_msp.c **** 
 570              		.loc 1 237 5 is_stmt 1 view .LVU151
 571 0012 02F5F232 		add	r2, r2, #123904
 572 0016 136C     		ldr	r3, [r2, #64]
 573 0018 23F40013 		bic	r3, r3, #2097152
 574 001c 1364     		str	r3, [r2, #64]
 243:Core/Src/stm32f4xx_hal_msp.c **** 
 575              		.loc 1 243 5 view .LVU152
 576 001e 0F4C     		ldr	r4, .L31+8
 577 0020 4021     		movs	r1, #64
 578 0022 2046     		mov	r0, r4
 579              	.LVL24:
 243:Core/Src/stm32f4xx_hal_msp.c **** 
 580              		.loc 1 243 5 is_stmt 0 view .LVU153
 581 0024 FFF7FEFF 		bl	HAL_GPIO_DeInit
 582              	.LVL25:
 245:Core/Src/stm32f4xx_hal_msp.c **** 
 583              		.loc 1 245 5 is_stmt 1 view .LVU154
 584 0028 8021     		movs	r1, #128
 585 002a 2046     		mov	r0, r4
 586 002c FFF7FEFF 		bl	HAL_GPIO_DeInit
 587              	.LVL26:
 588 0030 EEE7     		b	.L25
 589              	.LVL27:
 590              	.L30:
 257:Core/Src/stm32f4xx_hal_msp.c **** 
 591              		.loc 1 257 5 view .LVU155
 592 0032 02F5EE32 		add	r2, r2, #121856
 593 0036 136C     		ldr	r3, [r2, #64]
 594 0038 23F40003 		bic	r3, r3, #8388608
 595 003c 1364     		str	r3, [r2, #64]
 263:Core/Src/stm32f4xx_hal_msp.c **** 
 596              		.loc 1 263 5 view .LVU156
 597 003e 4FF48071 		mov	r1, #256
 598 0042 0748     		ldr	r0, .L31+12
ARM GAS  /tmp/ccvhwIcY.s 			page 18


 599              	.LVL28:
 263:Core/Src/stm32f4xx_hal_msp.c **** 
 600              		.loc 1 263 5 is_stmt 0 view .LVU157
 601 0044 FFF7FEFF 		bl	HAL_GPIO_DeInit
 602              	.LVL29:
 265:Core/Src/stm32f4xx_hal_msp.c **** 
 603              		.loc 1 265 5 is_stmt 1 view .LVU158
 604 0048 4FF48071 		mov	r1, #256
 605 004c 0348     		ldr	r0, .L31+8
 606 004e FFF7FEFF 		bl	HAL_GPIO_DeInit
 607              	.LVL30:
 608              		.loc 1 272 1 is_stmt 0 view .LVU159
 609 0052 DDE7     		b	.L25
 610              	.L32:
 611              		.align	2
 612              	.L31:
 613 0054 00540040 		.word	1073763328
 614 0058 005C0040 		.word	1073765376
 615 005c 00040240 		.word	1073873920
 616 0060 00000240 		.word	1073872896
 617              		.cfi_endproc
 618              	.LFE134:
 620              		.section	.text.HAL_I2S_MspInit,"ax",%progbits
 621              		.align	1
 622              		.global	HAL_I2S_MspInit
 623              		.syntax unified
 624              		.thumb
 625              		.thumb_func
 626              		.fpu fpv4-sp-d16
 628              	HAL_I2S_MspInit:
 629              	.LVL31:
 630              	.LFB135:
 273:Core/Src/stm32f4xx_hal_msp.c **** 
 274:Core/Src/stm32f4xx_hal_msp.c **** /**
 275:Core/Src/stm32f4xx_hal_msp.c **** * @brief I2S MSP Initialization
 276:Core/Src/stm32f4xx_hal_msp.c **** * This function configures the hardware resources used in this example
 277:Core/Src/stm32f4xx_hal_msp.c **** * @param hi2s: I2S handle pointer
 278:Core/Src/stm32f4xx_hal_msp.c **** * @retval None
 279:Core/Src/stm32f4xx_hal_msp.c **** */
 280:Core/Src/stm32f4xx_hal_msp.c **** void HAL_I2S_MspInit(I2S_HandleTypeDef* hi2s)
 281:Core/Src/stm32f4xx_hal_msp.c **** {
 631              		.loc 1 281 1 is_stmt 1 view -0
 632              		.cfi_startproc
 633              		@ args = 0, pretend = 0, frame = 64
 634              		@ frame_needed = 0, uses_anonymous_args = 0
 635              		.loc 1 281 1 is_stmt 0 view .LVU161
 636 0000 70B5     		push	{r4, r5, r6, lr}
 637              	.LCFI12:
 638              		.cfi_def_cfa_offset 16
 639              		.cfi_offset 4, -16
 640              		.cfi_offset 5, -12
 641              		.cfi_offset 6, -8
 642              		.cfi_offset 14, -4
 643 0002 90B0     		sub	sp, sp, #64
 644              	.LCFI13:
 645              		.cfi_def_cfa_offset 80
 282:Core/Src/stm32f4xx_hal_msp.c ****   GPIO_InitTypeDef GPIO_InitStruct = {0};
ARM GAS  /tmp/ccvhwIcY.s 			page 19


 646              		.loc 1 282 3 is_stmt 1 view .LVU162
 647              		.loc 1 282 20 is_stmt 0 view .LVU163
 648 0004 0023     		movs	r3, #0
 649 0006 0B93     		str	r3, [sp, #44]
 650 0008 0C93     		str	r3, [sp, #48]
 651 000a 0D93     		str	r3, [sp, #52]
 652 000c 0E93     		str	r3, [sp, #56]
 653 000e 0F93     		str	r3, [sp, #60]
 283:Core/Src/stm32f4xx_hal_msp.c ****   if(hi2s->Instance==SPI2)
 654              		.loc 1 283 3 is_stmt 1 view .LVU164
 655              		.loc 1 283 10 is_stmt 0 view .LVU165
 656 0010 0368     		ldr	r3, [r0]
 657              		.loc 1 283 5 view .LVU166
 658 0012 6F4A     		ldr	r2, .L41
 659 0014 9342     		cmp	r3, r2
 660 0016 08D0     		beq	.L38
 284:Core/Src/stm32f4xx_hal_msp.c ****   {
 285:Core/Src/stm32f4xx_hal_msp.c ****   /* USER CODE BEGIN SPI2_MspInit 0 */
 286:Core/Src/stm32f4xx_hal_msp.c **** 
 287:Core/Src/stm32f4xx_hal_msp.c ****   /* USER CODE END SPI2_MspInit 0 */
 288:Core/Src/stm32f4xx_hal_msp.c ****     /* Peripheral clock enable */
 289:Core/Src/stm32f4xx_hal_msp.c ****     __HAL_RCC_SPI2_CLK_ENABLE();
 290:Core/Src/stm32f4xx_hal_msp.c **** 
 291:Core/Src/stm32f4xx_hal_msp.c ****     __HAL_RCC_GPIOC_CLK_ENABLE();
 292:Core/Src/stm32f4xx_hal_msp.c ****     __HAL_RCC_GPIOA_CLK_ENABLE();
 293:Core/Src/stm32f4xx_hal_msp.c ****     __HAL_RCC_GPIOB_CLK_ENABLE();
 294:Core/Src/stm32f4xx_hal_msp.c ****     /**I2S2 GPIO Configuration
 295:Core/Src/stm32f4xx_hal_msp.c ****     PC3     ------> I2S2_SD
 296:Core/Src/stm32f4xx_hal_msp.c ****     PA6     ------> I2S2_MCK
 297:Core/Src/stm32f4xx_hal_msp.c ****     PB12     ------> I2S2_WS
 298:Core/Src/stm32f4xx_hal_msp.c ****     PB13     ------> I2S2_CK
 299:Core/Src/stm32f4xx_hal_msp.c ****     */
 300:Core/Src/stm32f4xx_hal_msp.c ****     GPIO_InitStruct.Pin = GPIO_PIN_3;
 301:Core/Src/stm32f4xx_hal_msp.c ****     GPIO_InitStruct.Mode = GPIO_MODE_AF_PP;
 302:Core/Src/stm32f4xx_hal_msp.c ****     GPIO_InitStruct.Pull = GPIO_NOPULL;
 303:Core/Src/stm32f4xx_hal_msp.c ****     GPIO_InitStruct.Speed = GPIO_SPEED_FREQ_LOW;
 304:Core/Src/stm32f4xx_hal_msp.c ****     GPIO_InitStruct.Alternate = GPIO_AF5_SPI2;
 305:Core/Src/stm32f4xx_hal_msp.c ****     HAL_GPIO_Init(GPIOC, &GPIO_InitStruct);
 306:Core/Src/stm32f4xx_hal_msp.c **** 
 307:Core/Src/stm32f4xx_hal_msp.c ****     GPIO_InitStruct.Pin = GPIO_PIN_6;
 308:Core/Src/stm32f4xx_hal_msp.c ****     GPIO_InitStruct.Mode = GPIO_MODE_AF_PP;
 309:Core/Src/stm32f4xx_hal_msp.c ****     GPIO_InitStruct.Pull = GPIO_NOPULL;
 310:Core/Src/stm32f4xx_hal_msp.c ****     GPIO_InitStruct.Speed = GPIO_SPEED_FREQ_LOW;
 311:Core/Src/stm32f4xx_hal_msp.c ****     GPIO_InitStruct.Alternate = GPIO_AF6_SPI2;
 312:Core/Src/stm32f4xx_hal_msp.c ****     HAL_GPIO_Init(GPIOA, &GPIO_InitStruct);
 313:Core/Src/stm32f4xx_hal_msp.c **** 
 314:Core/Src/stm32f4xx_hal_msp.c ****     GPIO_InitStruct.Pin = GPIO_PIN_12|GPIO_PIN_13;
 315:Core/Src/stm32f4xx_hal_msp.c ****     GPIO_InitStruct.Mode = GPIO_MODE_AF_PP;
 316:Core/Src/stm32f4xx_hal_msp.c ****     GPIO_InitStruct.Pull = GPIO_NOPULL;
 317:Core/Src/stm32f4xx_hal_msp.c ****     GPIO_InitStruct.Speed = GPIO_SPEED_FREQ_LOW;
 318:Core/Src/stm32f4xx_hal_msp.c ****     GPIO_InitStruct.Alternate = GPIO_AF5_SPI2;
 319:Core/Src/stm32f4xx_hal_msp.c ****     HAL_GPIO_Init(GPIOB, &GPIO_InitStruct);
 320:Core/Src/stm32f4xx_hal_msp.c **** 
 321:Core/Src/stm32f4xx_hal_msp.c ****   /* USER CODE BEGIN SPI2_MspInit 1 */
 322:Core/Src/stm32f4xx_hal_msp.c **** 
 323:Core/Src/stm32f4xx_hal_msp.c ****   /* USER CODE END SPI2_MspInit 1 */
 324:Core/Src/stm32f4xx_hal_msp.c ****   }
ARM GAS  /tmp/ccvhwIcY.s 			page 20


 325:Core/Src/stm32f4xx_hal_msp.c ****   else if(hi2s->Instance==SPI3)
 661              		.loc 1 325 8 is_stmt 1 view .LVU167
 662              		.loc 1 325 10 is_stmt 0 view .LVU168
 663 0018 6E4A     		ldr	r2, .L41+4
 664 001a 9342     		cmp	r3, r2
 665 001c 52D0     		beq	.L39
 326:Core/Src/stm32f4xx_hal_msp.c ****   {
 327:Core/Src/stm32f4xx_hal_msp.c ****   /* USER CODE BEGIN SPI3_MspInit 0 */
 328:Core/Src/stm32f4xx_hal_msp.c **** 
 329:Core/Src/stm32f4xx_hal_msp.c ****   /* USER CODE END SPI3_MspInit 0 */
 330:Core/Src/stm32f4xx_hal_msp.c ****     /* Peripheral clock enable */
 331:Core/Src/stm32f4xx_hal_msp.c ****     __HAL_RCC_SPI3_CLK_ENABLE();
 332:Core/Src/stm32f4xx_hal_msp.c **** 
 333:Core/Src/stm32f4xx_hal_msp.c ****     __HAL_RCC_GPIOB_CLK_ENABLE();
 334:Core/Src/stm32f4xx_hal_msp.c ****     __HAL_RCC_GPIOA_CLK_ENABLE();
 335:Core/Src/stm32f4xx_hal_msp.c ****     __HAL_RCC_GPIOC_CLK_ENABLE();
 336:Core/Src/stm32f4xx_hal_msp.c ****     __HAL_RCC_GPIOD_CLK_ENABLE();
 337:Core/Src/stm32f4xx_hal_msp.c ****     /**I2S3 GPIO Configuration
 338:Core/Src/stm32f4xx_hal_msp.c ****     PB10     ------> I2S3_MCK
 339:Core/Src/stm32f4xx_hal_msp.c ****     PA15     ------> I2S3_WS
 340:Core/Src/stm32f4xx_hal_msp.c ****     PC11     ------> I2S3_ext_SD
 341:Core/Src/stm32f4xx_hal_msp.c ****     PD6     ------> I2S3_SD
 342:Core/Src/stm32f4xx_hal_msp.c ****     PB3     ------> I2S3_CK
 343:Core/Src/stm32f4xx_hal_msp.c ****     */
 344:Core/Src/stm32f4xx_hal_msp.c ****     GPIO_InitStruct.Pin = GPIO_PIN_10|GPIO_PIN_3;
 345:Core/Src/stm32f4xx_hal_msp.c ****     GPIO_InitStruct.Mode = GPIO_MODE_AF_PP;
 346:Core/Src/stm32f4xx_hal_msp.c ****     GPIO_InitStruct.Pull = GPIO_NOPULL;
 347:Core/Src/stm32f4xx_hal_msp.c ****     GPIO_InitStruct.Speed = GPIO_SPEED_FREQ_LOW;
 348:Core/Src/stm32f4xx_hal_msp.c ****     GPIO_InitStruct.Alternate = GPIO_AF6_SPI3;
 349:Core/Src/stm32f4xx_hal_msp.c ****     HAL_GPIO_Init(GPIOB, &GPIO_InitStruct);
 350:Core/Src/stm32f4xx_hal_msp.c **** 
 351:Core/Src/stm32f4xx_hal_msp.c ****     GPIO_InitStruct.Pin = GPIO_PIN_15;
 352:Core/Src/stm32f4xx_hal_msp.c ****     GPIO_InitStruct.Mode = GPIO_MODE_AF_PP;
 353:Core/Src/stm32f4xx_hal_msp.c ****     GPIO_InitStruct.Pull = GPIO_NOPULL;
 354:Core/Src/stm32f4xx_hal_msp.c ****     GPIO_InitStruct.Speed = GPIO_SPEED_FREQ_LOW;
 355:Core/Src/stm32f4xx_hal_msp.c ****     GPIO_InitStruct.Alternate = GPIO_AF6_SPI3;
 356:Core/Src/stm32f4xx_hal_msp.c ****     HAL_GPIO_Init(GPIOA, &GPIO_InitStruct);
 357:Core/Src/stm32f4xx_hal_msp.c **** 
 358:Core/Src/stm32f4xx_hal_msp.c ****     GPIO_InitStruct.Pin = GPIO_PIN_11;
 359:Core/Src/stm32f4xx_hal_msp.c ****     GPIO_InitStruct.Mode = GPIO_MODE_AF_PP;
 360:Core/Src/stm32f4xx_hal_msp.c ****     GPIO_InitStruct.Pull = GPIO_NOPULL;
 361:Core/Src/stm32f4xx_hal_msp.c ****     GPIO_InitStruct.Speed = GPIO_SPEED_FREQ_LOW;
 362:Core/Src/stm32f4xx_hal_msp.c ****     GPIO_InitStruct.Alternate = GPIO_AF5_I2S3ext;
 363:Core/Src/stm32f4xx_hal_msp.c ****     HAL_GPIO_Init(GPIOC, &GPIO_InitStruct);
 364:Core/Src/stm32f4xx_hal_msp.c **** 
 365:Core/Src/stm32f4xx_hal_msp.c ****     GPIO_InitStruct.Pin = GPIO_PIN_6;
 366:Core/Src/stm32f4xx_hal_msp.c ****     GPIO_InitStruct.Mode = GPIO_MODE_AF_PP;
 367:Core/Src/stm32f4xx_hal_msp.c ****     GPIO_InitStruct.Pull = GPIO_NOPULL;
 368:Core/Src/stm32f4xx_hal_msp.c ****     GPIO_InitStruct.Speed = GPIO_SPEED_FREQ_LOW;
 369:Core/Src/stm32f4xx_hal_msp.c ****     GPIO_InitStruct.Alternate = GPIO_AF5_SPI3;
 370:Core/Src/stm32f4xx_hal_msp.c ****     HAL_GPIO_Init(GPIOD, &GPIO_InitStruct);
 371:Core/Src/stm32f4xx_hal_msp.c **** 
 372:Core/Src/stm32f4xx_hal_msp.c ****   /* USER CODE BEGIN SPI3_MspInit 1 */
 373:Core/Src/stm32f4xx_hal_msp.c **** 
 374:Core/Src/stm32f4xx_hal_msp.c ****   /* USER CODE END SPI3_MspInit 1 */
 375:Core/Src/stm32f4xx_hal_msp.c ****   }
 376:Core/Src/stm32f4xx_hal_msp.c ****   else if(hi2s->Instance==SPI4)
ARM GAS  /tmp/ccvhwIcY.s 			page 21


 666              		.loc 1 376 8 is_stmt 1 view .LVU169
 667              		.loc 1 376 10 is_stmt 0 view .LVU170
 668 001e 6E4A     		ldr	r2, .L41+8
 669 0020 9342     		cmp	r3, r2
 670 0022 00F0B280 		beq	.L40
 671              	.LVL32:
 672              	.L33:
 377:Core/Src/stm32f4xx_hal_msp.c ****   {
 378:Core/Src/stm32f4xx_hal_msp.c ****   /* USER CODE BEGIN SPI4_MspInit 0 */
 379:Core/Src/stm32f4xx_hal_msp.c **** 
 380:Core/Src/stm32f4xx_hal_msp.c ****   /* USER CODE END SPI4_MspInit 0 */
 381:Core/Src/stm32f4xx_hal_msp.c ****     /* Peripheral clock enable */
 382:Core/Src/stm32f4xx_hal_msp.c ****     __HAL_RCC_SPI4_CLK_ENABLE();
 383:Core/Src/stm32f4xx_hal_msp.c **** 
 384:Core/Src/stm32f4xx_hal_msp.c ****     __HAL_RCC_GPIOE_CLK_ENABLE();
 385:Core/Src/stm32f4xx_hal_msp.c ****     /**I2S4 GPIO Configuration
 386:Core/Src/stm32f4xx_hal_msp.c ****     PE2     ------> I2S4_CK
 387:Core/Src/stm32f4xx_hal_msp.c ****     PE4     ------> I2S4_WS
 388:Core/Src/stm32f4xx_hal_msp.c ****     PE6     ------> I2S4_SD
 389:Core/Src/stm32f4xx_hal_msp.c ****     */
 390:Core/Src/stm32f4xx_hal_msp.c ****     GPIO_InitStruct.Pin = GPIO_PIN_2|GPIO_PIN_4|GPIO_PIN_6;
 391:Core/Src/stm32f4xx_hal_msp.c ****     GPIO_InitStruct.Mode = GPIO_MODE_AF_PP;
 392:Core/Src/stm32f4xx_hal_msp.c ****     GPIO_InitStruct.Pull = GPIO_NOPULL;
 393:Core/Src/stm32f4xx_hal_msp.c ****     GPIO_InitStruct.Speed = GPIO_SPEED_FREQ_LOW;
 394:Core/Src/stm32f4xx_hal_msp.c ****     GPIO_InitStruct.Alternate = GPIO_AF5_SPI4;
 395:Core/Src/stm32f4xx_hal_msp.c ****     HAL_GPIO_Init(GPIOE, &GPIO_InitStruct);
 396:Core/Src/stm32f4xx_hal_msp.c **** 
 397:Core/Src/stm32f4xx_hal_msp.c ****   /* USER CODE BEGIN SPI4_MspInit 1 */
 398:Core/Src/stm32f4xx_hal_msp.c **** 
 399:Core/Src/stm32f4xx_hal_msp.c ****   /* USER CODE END SPI4_MspInit 1 */
 400:Core/Src/stm32f4xx_hal_msp.c ****   }
 401:Core/Src/stm32f4xx_hal_msp.c **** 
 402:Core/Src/stm32f4xx_hal_msp.c **** }
 673              		.loc 1 402 1 view .LVU171
 674 0026 10B0     		add	sp, sp, #64
 675              	.LCFI14:
 676              		.cfi_remember_state
 677              		.cfi_def_cfa_offset 16
 678              		@ sp needed
 679 0028 70BD     		pop	{r4, r5, r6, pc}
 680              	.LVL33:
 681              	.L38:
 682              	.LCFI15:
 683              		.cfi_restore_state
 289:Core/Src/stm32f4xx_hal_msp.c **** 
 684              		.loc 1 289 5 is_stmt 1 view .LVU172
 685              	.LBB12:
 289:Core/Src/stm32f4xx_hal_msp.c **** 
 686              		.loc 1 289 5 view .LVU173
 687 002a 0024     		movs	r4, #0
 688 002c 0094     		str	r4, [sp]
 289:Core/Src/stm32f4xx_hal_msp.c **** 
 689              		.loc 1 289 5 view .LVU174
 690 002e 6B4B     		ldr	r3, .L41+12
 691 0030 1A6C     		ldr	r2, [r3, #64]
 692 0032 42F48042 		orr	r2, r2, #16384
 693 0036 1A64     		str	r2, [r3, #64]
ARM GAS  /tmp/ccvhwIcY.s 			page 22


 289:Core/Src/stm32f4xx_hal_msp.c **** 
 694              		.loc 1 289 5 view .LVU175
 695 0038 1A6C     		ldr	r2, [r3, #64]
 696 003a 02F48042 		and	r2, r2, #16384
 697 003e 0092     		str	r2, [sp]
 289:Core/Src/stm32f4xx_hal_msp.c **** 
 698              		.loc 1 289 5 view .LVU176
 699 0040 009A     		ldr	r2, [sp]
 700              	.LBE12:
 289:Core/Src/stm32f4xx_hal_msp.c **** 
 701              		.loc 1 289 5 view .LVU177
 291:Core/Src/stm32f4xx_hal_msp.c ****     __HAL_RCC_GPIOA_CLK_ENABLE();
 702              		.loc 1 291 5 view .LVU178
 703              	.LBB13:
 291:Core/Src/stm32f4xx_hal_msp.c ****     __HAL_RCC_GPIOA_CLK_ENABLE();
 704              		.loc 1 291 5 view .LVU179
 705 0042 0194     		str	r4, [sp, #4]
 291:Core/Src/stm32f4xx_hal_msp.c ****     __HAL_RCC_GPIOA_CLK_ENABLE();
 706              		.loc 1 291 5 view .LVU180
 707 0044 1A6B     		ldr	r2, [r3, #48]
 708 0046 42F00402 		orr	r2, r2, #4
 709 004a 1A63     		str	r2, [r3, #48]
 291:Core/Src/stm32f4xx_hal_msp.c ****     __HAL_RCC_GPIOA_CLK_ENABLE();
 710              		.loc 1 291 5 view .LVU181
 711 004c 1A6B     		ldr	r2, [r3, #48]
 712 004e 02F00402 		and	r2, r2, #4
 713 0052 0192     		str	r2, [sp, #4]
 291:Core/Src/stm32f4xx_hal_msp.c ****     __HAL_RCC_GPIOA_CLK_ENABLE();
 714              		.loc 1 291 5 view .LVU182
 715 0054 019A     		ldr	r2, [sp, #4]
 716              	.LBE13:
 291:Core/Src/stm32f4xx_hal_msp.c ****     __HAL_RCC_GPIOA_CLK_ENABLE();
 717              		.loc 1 291 5 view .LVU183
 292:Core/Src/stm32f4xx_hal_msp.c ****     __HAL_RCC_GPIOB_CLK_ENABLE();
 718              		.loc 1 292 5 view .LVU184
 719              	.LBB14:
 292:Core/Src/stm32f4xx_hal_msp.c ****     __HAL_RCC_GPIOB_CLK_ENABLE();
 720              		.loc 1 292 5 view .LVU185
 721 0056 0294     		str	r4, [sp, #8]
 292:Core/Src/stm32f4xx_hal_msp.c ****     __HAL_RCC_GPIOB_CLK_ENABLE();
 722              		.loc 1 292 5 view .LVU186
 723 0058 1A6B     		ldr	r2, [r3, #48]
 724 005a 42F00102 		orr	r2, r2, #1
 725 005e 1A63     		str	r2, [r3, #48]
 292:Core/Src/stm32f4xx_hal_msp.c ****     __HAL_RCC_GPIOB_CLK_ENABLE();
 726              		.loc 1 292 5 view .LVU187
 727 0060 1A6B     		ldr	r2, [r3, #48]
 728 0062 02F00102 		and	r2, r2, #1
 729 0066 0292     		str	r2, [sp, #8]
 292:Core/Src/stm32f4xx_hal_msp.c ****     __HAL_RCC_GPIOB_CLK_ENABLE();
 730              		.loc 1 292 5 view .LVU188
 731 0068 029A     		ldr	r2, [sp, #8]
 732              	.LBE14:
 292:Core/Src/stm32f4xx_hal_msp.c ****     __HAL_RCC_GPIOB_CLK_ENABLE();
 733              		.loc 1 292 5 view .LVU189
 293:Core/Src/stm32f4xx_hal_msp.c ****     /**I2S2 GPIO Configuration
 734              		.loc 1 293 5 view .LVU190
ARM GAS  /tmp/ccvhwIcY.s 			page 23


 735              	.LBB15:
 293:Core/Src/stm32f4xx_hal_msp.c ****     /**I2S2 GPIO Configuration
 736              		.loc 1 293 5 view .LVU191
 737 006a 0394     		str	r4, [sp, #12]
 293:Core/Src/stm32f4xx_hal_msp.c ****     /**I2S2 GPIO Configuration
 738              		.loc 1 293 5 view .LVU192
 739 006c 1A6B     		ldr	r2, [r3, #48]
 740 006e 42F00202 		orr	r2, r2, #2
 741 0072 1A63     		str	r2, [r3, #48]
 293:Core/Src/stm32f4xx_hal_msp.c ****     /**I2S2 GPIO Configuration
 742              		.loc 1 293 5 view .LVU193
 743 0074 1B6B     		ldr	r3, [r3, #48]
 744 0076 03F00203 		and	r3, r3, #2
 745 007a 0393     		str	r3, [sp, #12]
 293:Core/Src/stm32f4xx_hal_msp.c ****     /**I2S2 GPIO Configuration
 746              		.loc 1 293 5 view .LVU194
 747 007c 039B     		ldr	r3, [sp, #12]
 748              	.LBE15:
 293:Core/Src/stm32f4xx_hal_msp.c ****     /**I2S2 GPIO Configuration
 749              		.loc 1 293 5 view .LVU195
 300:Core/Src/stm32f4xx_hal_msp.c ****     GPIO_InitStruct.Mode = GPIO_MODE_AF_PP;
 750              		.loc 1 300 5 view .LVU196
 300:Core/Src/stm32f4xx_hal_msp.c ****     GPIO_InitStruct.Mode = GPIO_MODE_AF_PP;
 751              		.loc 1 300 25 is_stmt 0 view .LVU197
 752 007e 0823     		movs	r3, #8
 753 0080 0B93     		str	r3, [sp, #44]
 301:Core/Src/stm32f4xx_hal_msp.c ****     GPIO_InitStruct.Pull = GPIO_NOPULL;
 754              		.loc 1 301 5 is_stmt 1 view .LVU198
 301:Core/Src/stm32f4xx_hal_msp.c ****     GPIO_InitStruct.Pull = GPIO_NOPULL;
 755              		.loc 1 301 26 is_stmt 0 view .LVU199
 756 0082 0225     		movs	r5, #2
 757 0084 0C95     		str	r5, [sp, #48]
 302:Core/Src/stm32f4xx_hal_msp.c ****     GPIO_InitStruct.Speed = GPIO_SPEED_FREQ_LOW;
 758              		.loc 1 302 5 is_stmt 1 view .LVU200
 302:Core/Src/stm32f4xx_hal_msp.c ****     GPIO_InitStruct.Speed = GPIO_SPEED_FREQ_LOW;
 759              		.loc 1 302 26 is_stmt 0 view .LVU201
 760 0086 0D94     		str	r4, [sp, #52]
 303:Core/Src/stm32f4xx_hal_msp.c ****     GPIO_InitStruct.Alternate = GPIO_AF5_SPI2;
 761              		.loc 1 303 5 is_stmt 1 view .LVU202
 303:Core/Src/stm32f4xx_hal_msp.c ****     GPIO_InitStruct.Alternate = GPIO_AF5_SPI2;
 762              		.loc 1 303 27 is_stmt 0 view .LVU203
 763 0088 0E94     		str	r4, [sp, #56]
 304:Core/Src/stm32f4xx_hal_msp.c ****     HAL_GPIO_Init(GPIOC, &GPIO_InitStruct);
 764              		.loc 1 304 5 is_stmt 1 view .LVU204
 304:Core/Src/stm32f4xx_hal_msp.c ****     HAL_GPIO_Init(GPIOC, &GPIO_InitStruct);
 765              		.loc 1 304 31 is_stmt 0 view .LVU205
 766 008a 0526     		movs	r6, #5
 767 008c 0F96     		str	r6, [sp, #60]
 305:Core/Src/stm32f4xx_hal_msp.c **** 
 768              		.loc 1 305 5 is_stmt 1 view .LVU206
 769 008e 0BA9     		add	r1, sp, #44
 770 0090 5348     		ldr	r0, .L41+16
 771              	.LVL34:
 305:Core/Src/stm32f4xx_hal_msp.c **** 
 772              		.loc 1 305 5 is_stmt 0 view .LVU207
 773 0092 FFF7FEFF 		bl	HAL_GPIO_Init
 774              	.LVL35:
ARM GAS  /tmp/ccvhwIcY.s 			page 24


 307:Core/Src/stm32f4xx_hal_msp.c ****     GPIO_InitStruct.Mode = GPIO_MODE_AF_PP;
 775              		.loc 1 307 5 is_stmt 1 view .LVU208
 307:Core/Src/stm32f4xx_hal_msp.c ****     GPIO_InitStruct.Mode = GPIO_MODE_AF_PP;
 776              		.loc 1 307 25 is_stmt 0 view .LVU209
 777 0096 4023     		movs	r3, #64
 778 0098 0B93     		str	r3, [sp, #44]
 308:Core/Src/stm32f4xx_hal_msp.c ****     GPIO_InitStruct.Pull = GPIO_NOPULL;
 779              		.loc 1 308 5 is_stmt 1 view .LVU210
 308:Core/Src/stm32f4xx_hal_msp.c ****     GPIO_InitStruct.Pull = GPIO_NOPULL;
 780              		.loc 1 308 26 is_stmt 0 view .LVU211
 781 009a 0C95     		str	r5, [sp, #48]
 309:Core/Src/stm32f4xx_hal_msp.c ****     GPIO_InitStruct.Speed = GPIO_SPEED_FREQ_LOW;
 782              		.loc 1 309 5 is_stmt 1 view .LVU212
 309:Core/Src/stm32f4xx_hal_msp.c ****     GPIO_InitStruct.Speed = GPIO_SPEED_FREQ_LOW;
 783              		.loc 1 309 26 is_stmt 0 view .LVU213
 784 009c 0D94     		str	r4, [sp, #52]
 310:Core/Src/stm32f4xx_hal_msp.c ****     GPIO_InitStruct.Alternate = GPIO_AF6_SPI2;
 785              		.loc 1 310 5 is_stmt 1 view .LVU214
 310:Core/Src/stm32f4xx_hal_msp.c ****     GPIO_InitStruct.Alternate = GPIO_AF6_SPI2;
 786              		.loc 1 310 27 is_stmt 0 view .LVU215
 787 009e 0E94     		str	r4, [sp, #56]
 311:Core/Src/stm32f4xx_hal_msp.c ****     HAL_GPIO_Init(GPIOA, &GPIO_InitStruct);
 788              		.loc 1 311 5 is_stmt 1 view .LVU216
 311:Core/Src/stm32f4xx_hal_msp.c ****     HAL_GPIO_Init(GPIOA, &GPIO_InitStruct);
 789              		.loc 1 311 31 is_stmt 0 view .LVU217
 790 00a0 0623     		movs	r3, #6
 791 00a2 0F93     		str	r3, [sp, #60]
 312:Core/Src/stm32f4xx_hal_msp.c **** 
 792              		.loc 1 312 5 is_stmt 1 view .LVU218
 793 00a4 0BA9     		add	r1, sp, #44
 794 00a6 4F48     		ldr	r0, .L41+20
 795 00a8 FFF7FEFF 		bl	HAL_GPIO_Init
 796              	.LVL36:
 314:Core/Src/stm32f4xx_hal_msp.c ****     GPIO_InitStruct.Mode = GPIO_MODE_AF_PP;
 797              		.loc 1 314 5 view .LVU219
 314:Core/Src/stm32f4xx_hal_msp.c ****     GPIO_InitStruct.Mode = GPIO_MODE_AF_PP;
 798              		.loc 1 314 25 is_stmt 0 view .LVU220
 799 00ac 4FF44053 		mov	r3, #12288
 800 00b0 0B93     		str	r3, [sp, #44]
 315:Core/Src/stm32f4xx_hal_msp.c ****     GPIO_InitStruct.Pull = GPIO_NOPULL;
 801              		.loc 1 315 5 is_stmt 1 view .LVU221
 315:Core/Src/stm32f4xx_hal_msp.c ****     GPIO_InitStruct.Pull = GPIO_NOPULL;
 802              		.loc 1 315 26 is_stmt 0 view .LVU222
 803 00b2 0C95     		str	r5, [sp, #48]
 316:Core/Src/stm32f4xx_hal_msp.c ****     GPIO_InitStruct.Speed = GPIO_SPEED_FREQ_LOW;
 804              		.loc 1 316 5 is_stmt 1 view .LVU223
 316:Core/Src/stm32f4xx_hal_msp.c ****     GPIO_InitStruct.Speed = GPIO_SPEED_FREQ_LOW;
 805              		.loc 1 316 26 is_stmt 0 view .LVU224
 806 00b4 0D94     		str	r4, [sp, #52]
 317:Core/Src/stm32f4xx_hal_msp.c ****     GPIO_InitStruct.Alternate = GPIO_AF5_SPI2;
 807              		.loc 1 317 5 is_stmt 1 view .LVU225
 317:Core/Src/stm32f4xx_hal_msp.c ****     GPIO_InitStruct.Alternate = GPIO_AF5_SPI2;
 808              		.loc 1 317 27 is_stmt 0 view .LVU226
 809 00b6 0E94     		str	r4, [sp, #56]
 318:Core/Src/stm32f4xx_hal_msp.c ****     HAL_GPIO_Init(GPIOB, &GPIO_InitStruct);
 810              		.loc 1 318 5 is_stmt 1 view .LVU227
 318:Core/Src/stm32f4xx_hal_msp.c ****     HAL_GPIO_Init(GPIOB, &GPIO_InitStruct);
ARM GAS  /tmp/ccvhwIcY.s 			page 25


 811              		.loc 1 318 31 is_stmt 0 view .LVU228
 812 00b8 0F96     		str	r6, [sp, #60]
 319:Core/Src/stm32f4xx_hal_msp.c **** 
 813              		.loc 1 319 5 is_stmt 1 view .LVU229
 814 00ba 0BA9     		add	r1, sp, #44
 815 00bc 4A48     		ldr	r0, .L41+24
 816 00be FFF7FEFF 		bl	HAL_GPIO_Init
 817              	.LVL37:
 818 00c2 B0E7     		b	.L33
 819              	.LVL38:
 820              	.L39:
 331:Core/Src/stm32f4xx_hal_msp.c **** 
 821              		.loc 1 331 5 view .LVU230
 822              	.LBB16:
 331:Core/Src/stm32f4xx_hal_msp.c **** 
 823              		.loc 1 331 5 view .LVU231
 824 00c4 0024     		movs	r4, #0
 825 00c6 0494     		str	r4, [sp, #16]
 331:Core/Src/stm32f4xx_hal_msp.c **** 
 826              		.loc 1 331 5 view .LVU232
 827 00c8 444B     		ldr	r3, .L41+12
 828 00ca 1A6C     		ldr	r2, [r3, #64]
 829 00cc 42F40042 		orr	r2, r2, #32768
 830 00d0 1A64     		str	r2, [r3, #64]
 331:Core/Src/stm32f4xx_hal_msp.c **** 
 831              		.loc 1 331 5 view .LVU233
 832 00d2 1A6C     		ldr	r2, [r3, #64]
 833 00d4 02F40042 		and	r2, r2, #32768
 834 00d8 0492     		str	r2, [sp, #16]
 331:Core/Src/stm32f4xx_hal_msp.c **** 
 835              		.loc 1 331 5 view .LVU234
 836 00da 049A     		ldr	r2, [sp, #16]
 837              	.LBE16:
 331:Core/Src/stm32f4xx_hal_msp.c **** 
 838              		.loc 1 331 5 view .LVU235
 333:Core/Src/stm32f4xx_hal_msp.c ****     __HAL_RCC_GPIOA_CLK_ENABLE();
 839              		.loc 1 333 5 view .LVU236
 840              	.LBB17:
 333:Core/Src/stm32f4xx_hal_msp.c ****     __HAL_RCC_GPIOA_CLK_ENABLE();
 841              		.loc 1 333 5 view .LVU237
 842 00dc 0594     		str	r4, [sp, #20]
 333:Core/Src/stm32f4xx_hal_msp.c ****     __HAL_RCC_GPIOA_CLK_ENABLE();
 843              		.loc 1 333 5 view .LVU238
 844 00de 1A6B     		ldr	r2, [r3, #48]
 845 00e0 42F00202 		orr	r2, r2, #2
 846 00e4 1A63     		str	r2, [r3, #48]
 333:Core/Src/stm32f4xx_hal_msp.c ****     __HAL_RCC_GPIOA_CLK_ENABLE();
 847              		.loc 1 333 5 view .LVU239
 848 00e6 1A6B     		ldr	r2, [r3, #48]
 849 00e8 02F00202 		and	r2, r2, #2
 850 00ec 0592     		str	r2, [sp, #20]
 333:Core/Src/stm32f4xx_hal_msp.c ****     __HAL_RCC_GPIOA_CLK_ENABLE();
 851              		.loc 1 333 5 view .LVU240
 852 00ee 059A     		ldr	r2, [sp, #20]
 853              	.LBE17:
 333:Core/Src/stm32f4xx_hal_msp.c ****     __HAL_RCC_GPIOA_CLK_ENABLE();
 854              		.loc 1 333 5 view .LVU241
ARM GAS  /tmp/ccvhwIcY.s 			page 26


 334:Core/Src/stm32f4xx_hal_msp.c ****     __HAL_RCC_GPIOC_CLK_ENABLE();
 855              		.loc 1 334 5 view .LVU242
 856              	.LBB18:
 334:Core/Src/stm32f4xx_hal_msp.c ****     __HAL_RCC_GPIOC_CLK_ENABLE();
 857              		.loc 1 334 5 view .LVU243
 858 00f0 0694     		str	r4, [sp, #24]
 334:Core/Src/stm32f4xx_hal_msp.c ****     __HAL_RCC_GPIOC_CLK_ENABLE();
 859              		.loc 1 334 5 view .LVU244
 860 00f2 1A6B     		ldr	r2, [r3, #48]
 861 00f4 42F00102 		orr	r2, r2, #1
 862 00f8 1A63     		str	r2, [r3, #48]
 334:Core/Src/stm32f4xx_hal_msp.c ****     __HAL_RCC_GPIOC_CLK_ENABLE();
 863              		.loc 1 334 5 view .LVU245
 864 00fa 1A6B     		ldr	r2, [r3, #48]
 865 00fc 02F00102 		and	r2, r2, #1
 866 0100 0692     		str	r2, [sp, #24]
 334:Core/Src/stm32f4xx_hal_msp.c ****     __HAL_RCC_GPIOC_CLK_ENABLE();
 867              		.loc 1 334 5 view .LVU246
 868 0102 069A     		ldr	r2, [sp, #24]
 869              	.LBE18:
 334:Core/Src/stm32f4xx_hal_msp.c ****     __HAL_RCC_GPIOC_CLK_ENABLE();
 870              		.loc 1 334 5 view .LVU247
 335:Core/Src/stm32f4xx_hal_msp.c ****     __HAL_RCC_GPIOD_CLK_ENABLE();
 871              		.loc 1 335 5 view .LVU248
 872              	.LBB19:
 335:Core/Src/stm32f4xx_hal_msp.c ****     __HAL_RCC_GPIOD_CLK_ENABLE();
 873              		.loc 1 335 5 view .LVU249
 874 0104 0794     		str	r4, [sp, #28]
 335:Core/Src/stm32f4xx_hal_msp.c ****     __HAL_RCC_GPIOD_CLK_ENABLE();
 875              		.loc 1 335 5 view .LVU250
 876 0106 1A6B     		ldr	r2, [r3, #48]
 877 0108 42F00402 		orr	r2, r2, #4
 878 010c 1A63     		str	r2, [r3, #48]
 335:Core/Src/stm32f4xx_hal_msp.c ****     __HAL_RCC_GPIOD_CLK_ENABLE();
 879              		.loc 1 335 5 view .LVU251
 880 010e 1A6B     		ldr	r2, [r3, #48]
 881 0110 02F00402 		and	r2, r2, #4
 882 0114 0792     		str	r2, [sp, #28]
 335:Core/Src/stm32f4xx_hal_msp.c ****     __HAL_RCC_GPIOD_CLK_ENABLE();
 883              		.loc 1 335 5 view .LVU252
 884 0116 079A     		ldr	r2, [sp, #28]
 885              	.LBE19:
 335:Core/Src/stm32f4xx_hal_msp.c ****     __HAL_RCC_GPIOD_CLK_ENABLE();
 886              		.loc 1 335 5 view .LVU253
 336:Core/Src/stm32f4xx_hal_msp.c ****     /**I2S3 GPIO Configuration
 887              		.loc 1 336 5 view .LVU254
 888              	.LBB20:
 336:Core/Src/stm32f4xx_hal_msp.c ****     /**I2S3 GPIO Configuration
 889              		.loc 1 336 5 view .LVU255
 890 0118 0894     		str	r4, [sp, #32]
 336:Core/Src/stm32f4xx_hal_msp.c ****     /**I2S3 GPIO Configuration
 891              		.loc 1 336 5 view .LVU256
 892 011a 1A6B     		ldr	r2, [r3, #48]
 893 011c 42F00802 		orr	r2, r2, #8
 894 0120 1A63     		str	r2, [r3, #48]
 336:Core/Src/stm32f4xx_hal_msp.c ****     /**I2S3 GPIO Configuration
 895              		.loc 1 336 5 view .LVU257
ARM GAS  /tmp/ccvhwIcY.s 			page 27


 896 0122 1B6B     		ldr	r3, [r3, #48]
 897 0124 03F00803 		and	r3, r3, #8
 898 0128 0893     		str	r3, [sp, #32]
 336:Core/Src/stm32f4xx_hal_msp.c ****     /**I2S3 GPIO Configuration
 899              		.loc 1 336 5 view .LVU258
 900 012a 089B     		ldr	r3, [sp, #32]
 901              	.LBE20:
 336:Core/Src/stm32f4xx_hal_msp.c ****     /**I2S3 GPIO Configuration
 902              		.loc 1 336 5 view .LVU259
 344:Core/Src/stm32f4xx_hal_msp.c ****     GPIO_InitStruct.Mode = GPIO_MODE_AF_PP;
 903              		.loc 1 344 5 view .LVU260
 344:Core/Src/stm32f4xx_hal_msp.c ****     GPIO_InitStruct.Mode = GPIO_MODE_AF_PP;
 904              		.loc 1 344 25 is_stmt 0 view .LVU261
 905 012c 4FF48163 		mov	r3, #1032
 906 0130 0B93     		str	r3, [sp, #44]
 345:Core/Src/stm32f4xx_hal_msp.c ****     GPIO_InitStruct.Pull = GPIO_NOPULL;
 907              		.loc 1 345 5 is_stmt 1 view .LVU262
 345:Core/Src/stm32f4xx_hal_msp.c ****     GPIO_InitStruct.Pull = GPIO_NOPULL;
 908              		.loc 1 345 26 is_stmt 0 view .LVU263
 909 0132 0225     		movs	r5, #2
 910 0134 0C95     		str	r5, [sp, #48]
 346:Core/Src/stm32f4xx_hal_msp.c ****     GPIO_InitStruct.Speed = GPIO_SPEED_FREQ_LOW;
 911              		.loc 1 346 5 is_stmt 1 view .LVU264
 346:Core/Src/stm32f4xx_hal_msp.c ****     GPIO_InitStruct.Speed = GPIO_SPEED_FREQ_LOW;
 912              		.loc 1 346 26 is_stmt 0 view .LVU265
 913 0136 0D94     		str	r4, [sp, #52]
 347:Core/Src/stm32f4xx_hal_msp.c ****     GPIO_InitStruct.Alternate = GPIO_AF6_SPI3;
 914              		.loc 1 347 5 is_stmt 1 view .LVU266
 347:Core/Src/stm32f4xx_hal_msp.c ****     GPIO_InitStruct.Alternate = GPIO_AF6_SPI3;
 915              		.loc 1 347 27 is_stmt 0 view .LVU267
 916 0138 0E94     		str	r4, [sp, #56]
 348:Core/Src/stm32f4xx_hal_msp.c ****     HAL_GPIO_Init(GPIOB, &GPIO_InitStruct);
 917              		.loc 1 348 5 is_stmt 1 view .LVU268
 348:Core/Src/stm32f4xx_hal_msp.c ****     HAL_GPIO_Init(GPIOB, &GPIO_InitStruct);
 918              		.loc 1 348 31 is_stmt 0 view .LVU269
 919 013a 0626     		movs	r6, #6
 920 013c 0F96     		str	r6, [sp, #60]
 349:Core/Src/stm32f4xx_hal_msp.c **** 
 921              		.loc 1 349 5 is_stmt 1 view .LVU270
 922 013e 0BA9     		add	r1, sp, #44
 923 0140 2948     		ldr	r0, .L41+24
 924              	.LVL39:
 349:Core/Src/stm32f4xx_hal_msp.c **** 
 925              		.loc 1 349 5 is_stmt 0 view .LVU271
 926 0142 FFF7FEFF 		bl	HAL_GPIO_Init
 927              	.LVL40:
 351:Core/Src/stm32f4xx_hal_msp.c ****     GPIO_InitStruct.Mode = GPIO_MODE_AF_PP;
 928              		.loc 1 351 5 is_stmt 1 view .LVU272
 351:Core/Src/stm32f4xx_hal_msp.c ****     GPIO_InitStruct.Mode = GPIO_MODE_AF_PP;
 929              		.loc 1 351 25 is_stmt 0 view .LVU273
 930 0146 4FF40043 		mov	r3, #32768
 931 014a 0B93     		str	r3, [sp, #44]
 352:Core/Src/stm32f4xx_hal_msp.c ****     GPIO_InitStruct.Pull = GPIO_NOPULL;
 932              		.loc 1 352 5 is_stmt 1 view .LVU274
 352:Core/Src/stm32f4xx_hal_msp.c ****     GPIO_InitStruct.Pull = GPIO_NOPULL;
 933              		.loc 1 352 26 is_stmt 0 view .LVU275
 934 014c 0C95     		str	r5, [sp, #48]
ARM GAS  /tmp/ccvhwIcY.s 			page 28


 353:Core/Src/stm32f4xx_hal_msp.c ****     GPIO_InitStruct.Speed = GPIO_SPEED_FREQ_LOW;
 935              		.loc 1 353 5 is_stmt 1 view .LVU276
 353:Core/Src/stm32f4xx_hal_msp.c ****     GPIO_InitStruct.Speed = GPIO_SPEED_FREQ_LOW;
 936              		.loc 1 353 26 is_stmt 0 view .LVU277
 937 014e 0D94     		str	r4, [sp, #52]
 354:Core/Src/stm32f4xx_hal_msp.c ****     GPIO_InitStruct.Alternate = GPIO_AF6_SPI3;
 938              		.loc 1 354 5 is_stmt 1 view .LVU278
 354:Core/Src/stm32f4xx_hal_msp.c ****     GPIO_InitStruct.Alternate = GPIO_AF6_SPI3;
 939              		.loc 1 354 27 is_stmt 0 view .LVU279
 940 0150 0E94     		str	r4, [sp, #56]
 355:Core/Src/stm32f4xx_hal_msp.c ****     HAL_GPIO_Init(GPIOA, &GPIO_InitStruct);
 941              		.loc 1 355 5 is_stmt 1 view .LVU280
 355:Core/Src/stm32f4xx_hal_msp.c ****     HAL_GPIO_Init(GPIOA, &GPIO_InitStruct);
 942              		.loc 1 355 31 is_stmt 0 view .LVU281
 943 0152 0F96     		str	r6, [sp, #60]
 356:Core/Src/stm32f4xx_hal_msp.c **** 
 944              		.loc 1 356 5 is_stmt 1 view .LVU282
 945 0154 0BA9     		add	r1, sp, #44
 946 0156 2348     		ldr	r0, .L41+20
 947 0158 FFF7FEFF 		bl	HAL_GPIO_Init
 948              	.LVL41:
 358:Core/Src/stm32f4xx_hal_msp.c ****     GPIO_InitStruct.Mode = GPIO_MODE_AF_PP;
 949              		.loc 1 358 5 view .LVU283
 358:Core/Src/stm32f4xx_hal_msp.c ****     GPIO_InitStruct.Mode = GPIO_MODE_AF_PP;
 950              		.loc 1 358 25 is_stmt 0 view .LVU284
 951 015c 4FF40063 		mov	r3, #2048
 952 0160 0B93     		str	r3, [sp, #44]
 359:Core/Src/stm32f4xx_hal_msp.c ****     GPIO_InitStruct.Pull = GPIO_NOPULL;
 953              		.loc 1 359 5 is_stmt 1 view .LVU285
 359:Core/Src/stm32f4xx_hal_msp.c ****     GPIO_InitStruct.Pull = GPIO_NOPULL;
 954              		.loc 1 359 26 is_stmt 0 view .LVU286
 955 0162 0C95     		str	r5, [sp, #48]
 360:Core/Src/stm32f4xx_hal_msp.c ****     GPIO_InitStruct.Speed = GPIO_SPEED_FREQ_LOW;
 956              		.loc 1 360 5 is_stmt 1 view .LVU287
 360:Core/Src/stm32f4xx_hal_msp.c ****     GPIO_InitStruct.Speed = GPIO_SPEED_FREQ_LOW;
 957              		.loc 1 360 26 is_stmt 0 view .LVU288
 958 0164 0D94     		str	r4, [sp, #52]
 361:Core/Src/stm32f4xx_hal_msp.c ****     GPIO_InitStruct.Alternate = GPIO_AF5_I2S3ext;
 959              		.loc 1 361 5 is_stmt 1 view .LVU289
 361:Core/Src/stm32f4xx_hal_msp.c ****     GPIO_InitStruct.Alternate = GPIO_AF5_I2S3ext;
 960              		.loc 1 361 27 is_stmt 0 view .LVU290
 961 0166 0E94     		str	r4, [sp, #56]
 362:Core/Src/stm32f4xx_hal_msp.c ****     HAL_GPIO_Init(GPIOC, &GPIO_InitStruct);
 962              		.loc 1 362 5 is_stmt 1 view .LVU291
 362:Core/Src/stm32f4xx_hal_msp.c ****     HAL_GPIO_Init(GPIOC, &GPIO_InitStruct);
 963              		.loc 1 362 31 is_stmt 0 view .LVU292
 964 0168 0526     		movs	r6, #5
 965 016a 0F96     		str	r6, [sp, #60]
 363:Core/Src/stm32f4xx_hal_msp.c **** 
 966              		.loc 1 363 5 is_stmt 1 view .LVU293
 967 016c 0BA9     		add	r1, sp, #44
 968 016e 1C48     		ldr	r0, .L41+16
 969 0170 FFF7FEFF 		bl	HAL_GPIO_Init
 970              	.LVL42:
 365:Core/Src/stm32f4xx_hal_msp.c ****     GPIO_InitStruct.Mode = GPIO_MODE_AF_PP;
 971              		.loc 1 365 5 view .LVU294
 365:Core/Src/stm32f4xx_hal_msp.c ****     GPIO_InitStruct.Mode = GPIO_MODE_AF_PP;
ARM GAS  /tmp/ccvhwIcY.s 			page 29


 972              		.loc 1 365 25 is_stmt 0 view .LVU295
 973 0174 4023     		movs	r3, #64
 974 0176 0B93     		str	r3, [sp, #44]
 366:Core/Src/stm32f4xx_hal_msp.c ****     GPIO_InitStruct.Pull = GPIO_NOPULL;
 975              		.loc 1 366 5 is_stmt 1 view .LVU296
 366:Core/Src/stm32f4xx_hal_msp.c ****     GPIO_InitStruct.Pull = GPIO_NOPULL;
 976              		.loc 1 366 26 is_stmt 0 view .LVU297
 977 0178 0C95     		str	r5, [sp, #48]
 367:Core/Src/stm32f4xx_hal_msp.c ****     GPIO_InitStruct.Speed = GPIO_SPEED_FREQ_LOW;
 978              		.loc 1 367 5 is_stmt 1 view .LVU298
 367:Core/Src/stm32f4xx_hal_msp.c ****     GPIO_InitStruct.Speed = GPIO_SPEED_FREQ_LOW;
 979              		.loc 1 367 26 is_stmt 0 view .LVU299
 980 017a 0D94     		str	r4, [sp, #52]
 368:Core/Src/stm32f4xx_hal_msp.c ****     GPIO_InitStruct.Alternate = GPIO_AF5_SPI3;
 981              		.loc 1 368 5 is_stmt 1 view .LVU300
 368:Core/Src/stm32f4xx_hal_msp.c ****     GPIO_InitStruct.Alternate = GPIO_AF5_SPI3;
 982              		.loc 1 368 27 is_stmt 0 view .LVU301
 983 017c 0E94     		str	r4, [sp, #56]
 369:Core/Src/stm32f4xx_hal_msp.c ****     HAL_GPIO_Init(GPIOD, &GPIO_InitStruct);
 984              		.loc 1 369 5 is_stmt 1 view .LVU302
 369:Core/Src/stm32f4xx_hal_msp.c ****     HAL_GPIO_Init(GPIOD, &GPIO_InitStruct);
 985              		.loc 1 369 31 is_stmt 0 view .LVU303
 986 017e 0F96     		str	r6, [sp, #60]
 370:Core/Src/stm32f4xx_hal_msp.c **** 
 987              		.loc 1 370 5 is_stmt 1 view .LVU304
 988 0180 0BA9     		add	r1, sp, #44
 989 0182 1A48     		ldr	r0, .L41+28
 990 0184 FFF7FEFF 		bl	HAL_GPIO_Init
 991              	.LVL43:
 992 0188 4DE7     		b	.L33
 993              	.LVL44:
 994              	.L40:
 382:Core/Src/stm32f4xx_hal_msp.c **** 
 995              		.loc 1 382 5 view .LVU305
 996              	.LBB21:
 382:Core/Src/stm32f4xx_hal_msp.c **** 
 997              		.loc 1 382 5 view .LVU306
 998 018a 0022     		movs	r2, #0
 999 018c 0992     		str	r2, [sp, #36]
 382:Core/Src/stm32f4xx_hal_msp.c **** 
 1000              		.loc 1 382 5 view .LVU307
 1001 018e 134B     		ldr	r3, .L41+12
 1002 0190 596C     		ldr	r1, [r3, #68]
 1003 0192 41F40051 		orr	r1, r1, #8192
 1004 0196 5964     		str	r1, [r3, #68]
 382:Core/Src/stm32f4xx_hal_msp.c **** 
 1005              		.loc 1 382 5 view .LVU308
 1006 0198 596C     		ldr	r1, [r3, #68]
 1007 019a 01F40051 		and	r1, r1, #8192
 1008 019e 0991     		str	r1, [sp, #36]
 382:Core/Src/stm32f4xx_hal_msp.c **** 
 1009              		.loc 1 382 5 view .LVU309
 1010 01a0 0999     		ldr	r1, [sp, #36]
 1011              	.LBE21:
 382:Core/Src/stm32f4xx_hal_msp.c **** 
 1012              		.loc 1 382 5 view .LVU310
 384:Core/Src/stm32f4xx_hal_msp.c ****     /**I2S4 GPIO Configuration
ARM GAS  /tmp/ccvhwIcY.s 			page 30


 1013              		.loc 1 384 5 view .LVU311
 1014              	.LBB22:
 384:Core/Src/stm32f4xx_hal_msp.c ****     /**I2S4 GPIO Configuration
 1015              		.loc 1 384 5 view .LVU312
 1016 01a2 0A92     		str	r2, [sp, #40]
 384:Core/Src/stm32f4xx_hal_msp.c ****     /**I2S4 GPIO Configuration
 1017              		.loc 1 384 5 view .LVU313
 1018 01a4 196B     		ldr	r1, [r3, #48]
 1019 01a6 41F01001 		orr	r1, r1, #16
 1020 01aa 1963     		str	r1, [r3, #48]
 384:Core/Src/stm32f4xx_hal_msp.c ****     /**I2S4 GPIO Configuration
 1021              		.loc 1 384 5 view .LVU314
 1022 01ac 1B6B     		ldr	r3, [r3, #48]
 1023 01ae 03F01003 		and	r3, r3, #16
 1024 01b2 0A93     		str	r3, [sp, #40]
 384:Core/Src/stm32f4xx_hal_msp.c ****     /**I2S4 GPIO Configuration
 1025              		.loc 1 384 5 view .LVU315
 1026 01b4 0A9B     		ldr	r3, [sp, #40]
 1027              	.LBE22:
 384:Core/Src/stm32f4xx_hal_msp.c ****     /**I2S4 GPIO Configuration
 1028              		.loc 1 384 5 view .LVU316
 390:Core/Src/stm32f4xx_hal_msp.c ****     GPIO_InitStruct.Mode = GPIO_MODE_AF_PP;
 1029              		.loc 1 390 5 view .LVU317
 390:Core/Src/stm32f4xx_hal_msp.c ****     GPIO_InitStruct.Mode = GPIO_MODE_AF_PP;
 1030              		.loc 1 390 25 is_stmt 0 view .LVU318
 1031 01b6 5423     		movs	r3, #84
 1032 01b8 0B93     		str	r3, [sp, #44]
 391:Core/Src/stm32f4xx_hal_msp.c ****     GPIO_InitStruct.Pull = GPIO_NOPULL;
 1033              		.loc 1 391 5 is_stmt 1 view .LVU319
 391:Core/Src/stm32f4xx_hal_msp.c ****     GPIO_InitStruct.Pull = GPIO_NOPULL;
 1034              		.loc 1 391 26 is_stmt 0 view .LVU320
 1035 01ba 0223     		movs	r3, #2
 1036 01bc 0C93     		str	r3, [sp, #48]
 392:Core/Src/stm32f4xx_hal_msp.c ****     GPIO_InitStruct.Speed = GPIO_SPEED_FREQ_LOW;
 1037              		.loc 1 392 5 is_stmt 1 view .LVU321
 392:Core/Src/stm32f4xx_hal_msp.c ****     GPIO_InitStruct.Speed = GPIO_SPEED_FREQ_LOW;
 1038              		.loc 1 392 26 is_stmt 0 view .LVU322
 1039 01be 0D92     		str	r2, [sp, #52]
 393:Core/Src/stm32f4xx_hal_msp.c ****     GPIO_InitStruct.Alternate = GPIO_AF5_SPI4;
 1040              		.loc 1 393 5 is_stmt 1 view .LVU323
 393:Core/Src/stm32f4xx_hal_msp.c ****     GPIO_InitStruct.Alternate = GPIO_AF5_SPI4;
 1041              		.loc 1 393 27 is_stmt 0 view .LVU324
 1042 01c0 0E92     		str	r2, [sp, #56]
 394:Core/Src/stm32f4xx_hal_msp.c ****     HAL_GPIO_Init(GPIOE, &GPIO_InitStruct);
 1043              		.loc 1 394 5 is_stmt 1 view .LVU325
 394:Core/Src/stm32f4xx_hal_msp.c ****     HAL_GPIO_Init(GPIOE, &GPIO_InitStruct);
 1044              		.loc 1 394 31 is_stmt 0 view .LVU326
 1045 01c2 0523     		movs	r3, #5
 1046 01c4 0F93     		str	r3, [sp, #60]
 395:Core/Src/stm32f4xx_hal_msp.c **** 
 1047              		.loc 1 395 5 is_stmt 1 view .LVU327
 1048 01c6 0BA9     		add	r1, sp, #44
 1049 01c8 0948     		ldr	r0, .L41+32
 1050              	.LVL45:
 395:Core/Src/stm32f4xx_hal_msp.c **** 
 1051              		.loc 1 395 5 is_stmt 0 view .LVU328
 1052 01ca FFF7FEFF 		bl	HAL_GPIO_Init
ARM GAS  /tmp/ccvhwIcY.s 			page 31


 1053              	.LVL46:
 1054              		.loc 1 402 1 view .LVU329
 1055 01ce 2AE7     		b	.L33
 1056              	.L42:
 1057              		.align	2
 1058              	.L41:
 1059 01d0 00380040 		.word	1073756160
 1060 01d4 003C0040 		.word	1073757184
 1061 01d8 00340140 		.word	1073820672
 1062 01dc 00380240 		.word	1073887232
 1063 01e0 00080240 		.word	1073874944
 1064 01e4 00000240 		.word	1073872896
 1065 01e8 00040240 		.word	1073873920
 1066 01ec 000C0240 		.word	1073875968
 1067 01f0 00100240 		.word	1073876992
 1068              		.cfi_endproc
 1069              	.LFE135:
 1071              		.section	.text.HAL_I2S_MspDeInit,"ax",%progbits
 1072              		.align	1
 1073              		.global	HAL_I2S_MspDeInit
 1074              		.syntax unified
 1075              		.thumb
 1076              		.thumb_func
 1077              		.fpu fpv4-sp-d16
 1079              	HAL_I2S_MspDeInit:
 1080              	.LVL47:
 1081              	.LFB136:
 403:Core/Src/stm32f4xx_hal_msp.c **** 
 404:Core/Src/stm32f4xx_hal_msp.c **** /**
 405:Core/Src/stm32f4xx_hal_msp.c **** * @brief I2S MSP De-Initialization
 406:Core/Src/stm32f4xx_hal_msp.c **** * This function freeze the hardware resources used in this example
 407:Core/Src/stm32f4xx_hal_msp.c **** * @param hi2s: I2S handle pointer
 408:Core/Src/stm32f4xx_hal_msp.c **** * @retval None
 409:Core/Src/stm32f4xx_hal_msp.c **** */
 410:Core/Src/stm32f4xx_hal_msp.c **** void HAL_I2S_MspDeInit(I2S_HandleTypeDef* hi2s)
 411:Core/Src/stm32f4xx_hal_msp.c **** {
 1082              		.loc 1 411 1 is_stmt 1 view -0
 1083              		.cfi_startproc
 1084              		@ args = 0, pretend = 0, frame = 0
 1085              		@ frame_needed = 0, uses_anonymous_args = 0
 1086              		.loc 1 411 1 is_stmt 0 view .LVU331
 1087 0000 08B5     		push	{r3, lr}
 1088              	.LCFI16:
 1089              		.cfi_def_cfa_offset 8
 1090              		.cfi_offset 3, -8
 1091              		.cfi_offset 14, -4
 412:Core/Src/stm32f4xx_hal_msp.c ****   if(hi2s->Instance==SPI2)
 1092              		.loc 1 412 3 is_stmt 1 view .LVU332
 1093              		.loc 1 412 10 is_stmt 0 view .LVU333
 1094 0002 0368     		ldr	r3, [r0]
 1095              		.loc 1 412 5 view .LVU334
 1096 0004 214A     		ldr	r2, .L51
 1097 0006 9342     		cmp	r3, r2
 1098 0008 06D0     		beq	.L48
 413:Core/Src/stm32f4xx_hal_msp.c ****   {
 414:Core/Src/stm32f4xx_hal_msp.c ****   /* USER CODE BEGIN SPI2_MspDeInit 0 */
 415:Core/Src/stm32f4xx_hal_msp.c **** 
ARM GAS  /tmp/ccvhwIcY.s 			page 32


 416:Core/Src/stm32f4xx_hal_msp.c ****   /* USER CODE END SPI2_MspDeInit 0 */
 417:Core/Src/stm32f4xx_hal_msp.c ****     /* Peripheral clock disable */
 418:Core/Src/stm32f4xx_hal_msp.c ****     __HAL_RCC_SPI2_CLK_DISABLE();
 419:Core/Src/stm32f4xx_hal_msp.c **** 
 420:Core/Src/stm32f4xx_hal_msp.c ****     /**I2S2 GPIO Configuration
 421:Core/Src/stm32f4xx_hal_msp.c ****     PC3     ------> I2S2_SD
 422:Core/Src/stm32f4xx_hal_msp.c ****     PA6     ------> I2S2_MCK
 423:Core/Src/stm32f4xx_hal_msp.c ****     PB12     ------> I2S2_WS
 424:Core/Src/stm32f4xx_hal_msp.c ****     PB13     ------> I2S2_CK
 425:Core/Src/stm32f4xx_hal_msp.c ****     */
 426:Core/Src/stm32f4xx_hal_msp.c ****     HAL_GPIO_DeInit(GPIOC, GPIO_PIN_3);
 427:Core/Src/stm32f4xx_hal_msp.c **** 
 428:Core/Src/stm32f4xx_hal_msp.c ****     HAL_GPIO_DeInit(GPIOA, GPIO_PIN_6);
 429:Core/Src/stm32f4xx_hal_msp.c **** 
 430:Core/Src/stm32f4xx_hal_msp.c ****     HAL_GPIO_DeInit(GPIOB, GPIO_PIN_12|GPIO_PIN_13);
 431:Core/Src/stm32f4xx_hal_msp.c **** 
 432:Core/Src/stm32f4xx_hal_msp.c ****   /* USER CODE BEGIN SPI2_MspDeInit 1 */
 433:Core/Src/stm32f4xx_hal_msp.c **** 
 434:Core/Src/stm32f4xx_hal_msp.c ****   /* USER CODE END SPI2_MspDeInit 1 */
 435:Core/Src/stm32f4xx_hal_msp.c ****   }
 436:Core/Src/stm32f4xx_hal_msp.c ****   else if(hi2s->Instance==SPI3)
 1099              		.loc 1 436 8 is_stmt 1 view .LVU335
 1100              		.loc 1 436 10 is_stmt 0 view .LVU336
 1101 000a 214A     		ldr	r2, .L51+4
 1102 000c 9342     		cmp	r3, r2
 1103 000e 17D0     		beq	.L49
 437:Core/Src/stm32f4xx_hal_msp.c ****   {
 438:Core/Src/stm32f4xx_hal_msp.c ****   /* USER CODE BEGIN SPI3_MspDeInit 0 */
 439:Core/Src/stm32f4xx_hal_msp.c **** 
 440:Core/Src/stm32f4xx_hal_msp.c ****   /* USER CODE END SPI3_MspDeInit 0 */
 441:Core/Src/stm32f4xx_hal_msp.c ****     /* Peripheral clock disable */
 442:Core/Src/stm32f4xx_hal_msp.c ****     __HAL_RCC_SPI3_CLK_DISABLE();
 443:Core/Src/stm32f4xx_hal_msp.c **** 
 444:Core/Src/stm32f4xx_hal_msp.c ****     /**I2S3 GPIO Configuration
 445:Core/Src/stm32f4xx_hal_msp.c ****     PB10     ------> I2S3_MCK
 446:Core/Src/stm32f4xx_hal_msp.c ****     PA15     ------> I2S3_WS
 447:Core/Src/stm32f4xx_hal_msp.c ****     PC11     ------> I2S3_ext_SD
 448:Core/Src/stm32f4xx_hal_msp.c ****     PD6     ------> I2S3_SD
 449:Core/Src/stm32f4xx_hal_msp.c ****     PB3     ------> I2S3_CK
 450:Core/Src/stm32f4xx_hal_msp.c ****     */
 451:Core/Src/stm32f4xx_hal_msp.c ****     HAL_GPIO_DeInit(GPIOB, GPIO_PIN_10|GPIO_PIN_3);
 452:Core/Src/stm32f4xx_hal_msp.c **** 
 453:Core/Src/stm32f4xx_hal_msp.c ****     HAL_GPIO_DeInit(GPIOA, GPIO_PIN_15);
 454:Core/Src/stm32f4xx_hal_msp.c **** 
 455:Core/Src/stm32f4xx_hal_msp.c ****     HAL_GPIO_DeInit(GPIOC, GPIO_PIN_11);
 456:Core/Src/stm32f4xx_hal_msp.c **** 
 457:Core/Src/stm32f4xx_hal_msp.c ****     HAL_GPIO_DeInit(GPIOD, GPIO_PIN_6);
 458:Core/Src/stm32f4xx_hal_msp.c **** 
 459:Core/Src/stm32f4xx_hal_msp.c ****   /* USER CODE BEGIN SPI3_MspDeInit 1 */
 460:Core/Src/stm32f4xx_hal_msp.c **** 
 461:Core/Src/stm32f4xx_hal_msp.c ****   /* USER CODE END SPI3_MspDeInit 1 */
 462:Core/Src/stm32f4xx_hal_msp.c ****   }
 463:Core/Src/stm32f4xx_hal_msp.c ****   else if(hi2s->Instance==SPI4)
 1104              		.loc 1 463 8 is_stmt 1 view .LVU337
 1105              		.loc 1 463 10 is_stmt 0 view .LVU338
 1106 0010 204A     		ldr	r2, .L51+8
 1107 0012 9342     		cmp	r3, r2
ARM GAS  /tmp/ccvhwIcY.s 			page 33


 1108 0014 2ED0     		beq	.L50
 1109              	.LVL48:
 1110              	.L43:
 464:Core/Src/stm32f4xx_hal_msp.c ****   {
 465:Core/Src/stm32f4xx_hal_msp.c ****   /* USER CODE BEGIN SPI4_MspDeInit 0 */
 466:Core/Src/stm32f4xx_hal_msp.c **** 
 467:Core/Src/stm32f4xx_hal_msp.c ****   /* USER CODE END SPI4_MspDeInit 0 */
 468:Core/Src/stm32f4xx_hal_msp.c ****     /* Peripheral clock disable */
 469:Core/Src/stm32f4xx_hal_msp.c ****     __HAL_RCC_SPI4_CLK_DISABLE();
 470:Core/Src/stm32f4xx_hal_msp.c **** 
 471:Core/Src/stm32f4xx_hal_msp.c ****     /**I2S4 GPIO Configuration
 472:Core/Src/stm32f4xx_hal_msp.c ****     PE2     ------> I2S4_CK
 473:Core/Src/stm32f4xx_hal_msp.c ****     PE4     ------> I2S4_WS
 474:Core/Src/stm32f4xx_hal_msp.c ****     PE6     ------> I2S4_SD
 475:Core/Src/stm32f4xx_hal_msp.c ****     */
 476:Core/Src/stm32f4xx_hal_msp.c ****     HAL_GPIO_DeInit(GPIOE, GPIO_PIN_2|GPIO_PIN_4|GPIO_PIN_6);
 477:Core/Src/stm32f4xx_hal_msp.c **** 
 478:Core/Src/stm32f4xx_hal_msp.c ****   /* USER CODE BEGIN SPI4_MspDeInit 1 */
 479:Core/Src/stm32f4xx_hal_msp.c **** 
 480:Core/Src/stm32f4xx_hal_msp.c ****   /* USER CODE END SPI4_MspDeInit 1 */
 481:Core/Src/stm32f4xx_hal_msp.c ****   }
 482:Core/Src/stm32f4xx_hal_msp.c **** 
 483:Core/Src/stm32f4xx_hal_msp.c **** }
 1111              		.loc 1 483 1 view .LVU339
 1112 0016 08BD     		pop	{r3, pc}
 1113              	.LVL49:
 1114              	.L48:
 418:Core/Src/stm32f4xx_hal_msp.c **** 
 1115              		.loc 1 418 5 is_stmt 1 view .LVU340
 1116 0018 02F50032 		add	r2, r2, #131072
 1117 001c 136C     		ldr	r3, [r2, #64]
 1118 001e 23F48043 		bic	r3, r3, #16384
 1119 0022 1364     		str	r3, [r2, #64]
 426:Core/Src/stm32f4xx_hal_msp.c **** 
 1120              		.loc 1 426 5 view .LVU341
 1121 0024 0821     		movs	r1, #8
 1122 0026 1C48     		ldr	r0, .L51+12
 1123              	.LVL50:
 426:Core/Src/stm32f4xx_hal_msp.c **** 
 1124              		.loc 1 426 5 is_stmt 0 view .LVU342
 1125 0028 FFF7FEFF 		bl	HAL_GPIO_DeInit
 1126              	.LVL51:
 428:Core/Src/stm32f4xx_hal_msp.c **** 
 1127              		.loc 1 428 5 is_stmt 1 view .LVU343
 1128 002c 4021     		movs	r1, #64
 1129 002e 1B48     		ldr	r0, .L51+16
 1130 0030 FFF7FEFF 		bl	HAL_GPIO_DeInit
 1131              	.LVL52:
 430:Core/Src/stm32f4xx_hal_msp.c **** 
 1132              		.loc 1 430 5 view .LVU344
 1133 0034 4FF44051 		mov	r1, #12288
 1134 0038 1948     		ldr	r0, .L51+20
 1135 003a FFF7FEFF 		bl	HAL_GPIO_DeInit
 1136              	.LVL53:
 1137 003e EAE7     		b	.L43
 1138              	.LVL54:
 1139              	.L49:
ARM GAS  /tmp/ccvhwIcY.s 			page 34


 442:Core/Src/stm32f4xx_hal_msp.c **** 
 1140              		.loc 1 442 5 view .LVU345
 1141 0040 02F5FE32 		add	r2, r2, #130048
 1142 0044 136C     		ldr	r3, [r2, #64]
 1143 0046 23F40043 		bic	r3, r3, #32768
 1144 004a 1364     		str	r3, [r2, #64]
 451:Core/Src/stm32f4xx_hal_msp.c **** 
 1145              		.loc 1 451 5 view .LVU346
 1146 004c 4FF48161 		mov	r1, #1032
 1147 0050 1348     		ldr	r0, .L51+20
 1148              	.LVL55:
 451:Core/Src/stm32f4xx_hal_msp.c **** 
 1149              		.loc 1 451 5 is_stmt 0 view .LVU347
 1150 0052 FFF7FEFF 		bl	HAL_GPIO_DeInit
 1151              	.LVL56:
 453:Core/Src/stm32f4xx_hal_msp.c **** 
 1152              		.loc 1 453 5 is_stmt 1 view .LVU348
 1153 0056 4FF40041 		mov	r1, #32768
 1154 005a 1048     		ldr	r0, .L51+16
 1155 005c FFF7FEFF 		bl	HAL_GPIO_DeInit
 1156              	.LVL57:
 455:Core/Src/stm32f4xx_hal_msp.c **** 
 1157              		.loc 1 455 5 view .LVU349
 1158 0060 4FF40061 		mov	r1, #2048
 1159 0064 0C48     		ldr	r0, .L51+12
 1160 0066 FFF7FEFF 		bl	HAL_GPIO_DeInit
 1161              	.LVL58:
 457:Core/Src/stm32f4xx_hal_msp.c **** 
 1162              		.loc 1 457 5 view .LVU350
 1163 006a 4021     		movs	r1, #64
 1164 006c 0D48     		ldr	r0, .L51+24
 1165 006e FFF7FEFF 		bl	HAL_GPIO_DeInit
 1166              	.LVL59:
 1167 0072 D0E7     		b	.L43
 1168              	.LVL60:
 1169              	.L50:
 469:Core/Src/stm32f4xx_hal_msp.c **** 
 1170              		.loc 1 469 5 view .LVU351
 1171 0074 02F58232 		add	r2, r2, #66560
 1172 0078 536C     		ldr	r3, [r2, #68]
 1173 007a 23F40053 		bic	r3, r3, #8192
 1174 007e 5364     		str	r3, [r2, #68]
 476:Core/Src/stm32f4xx_hal_msp.c **** 
 1175              		.loc 1 476 5 view .LVU352
 1176 0080 5421     		movs	r1, #84
 1177 0082 0948     		ldr	r0, .L51+28
 1178              	.LVL61:
 476:Core/Src/stm32f4xx_hal_msp.c **** 
 1179              		.loc 1 476 5 is_stmt 0 view .LVU353
 1180 0084 FFF7FEFF 		bl	HAL_GPIO_DeInit
 1181              	.LVL62:
 1182              		.loc 1 483 1 view .LVU354
 1183 0088 C5E7     		b	.L43
 1184              	.L52:
 1185 008a 00BF     		.align	2
 1186              	.L51:
 1187 008c 00380040 		.word	1073756160
ARM GAS  /tmp/ccvhwIcY.s 			page 35


 1188 0090 003C0040 		.word	1073757184
 1189 0094 00340140 		.word	1073820672
 1190 0098 00080240 		.word	1073874944
 1191 009c 00000240 		.word	1073872896
 1192 00a0 00040240 		.word	1073873920
 1193 00a4 000C0240 		.word	1073875968
 1194 00a8 00100240 		.word	1073876992
 1195              		.cfi_endproc
 1196              	.LFE136:
 1198              		.section	.text.HAL_SD_MspInit,"ax",%progbits
 1199              		.align	1
 1200              		.global	HAL_SD_MspInit
 1201              		.syntax unified
 1202              		.thumb
 1203              		.thumb_func
 1204              		.fpu fpv4-sp-d16
 1206              	HAL_SD_MspInit:
 1207              	.LVL63:
 1208              	.LFB137:
 484:Core/Src/stm32f4xx_hal_msp.c **** 
 485:Core/Src/stm32f4xx_hal_msp.c **** /**
 486:Core/Src/stm32f4xx_hal_msp.c **** * @brief SD MSP Initialization
 487:Core/Src/stm32f4xx_hal_msp.c **** * This function configures the hardware resources used in this example
 488:Core/Src/stm32f4xx_hal_msp.c **** * @param hsd: SD handle pointer
 489:Core/Src/stm32f4xx_hal_msp.c **** * @retval None
 490:Core/Src/stm32f4xx_hal_msp.c **** */
 491:Core/Src/stm32f4xx_hal_msp.c **** void HAL_SD_MspInit(SD_HandleTypeDef* hsd)
 492:Core/Src/stm32f4xx_hal_msp.c **** {
 1209              		.loc 1 492 1 is_stmt 1 view -0
 1210              		.cfi_startproc
 1211              		@ args = 0, pretend = 0, frame = 40
 1212              		@ frame_needed = 0, uses_anonymous_args = 0
 1213              		.loc 1 492 1 is_stmt 0 view .LVU356
 1214 0000 F0B5     		push	{r4, r5, r6, r7, lr}
 1215              	.LCFI17:
 1216              		.cfi_def_cfa_offset 20
 1217              		.cfi_offset 4, -20
 1218              		.cfi_offset 5, -16
 1219              		.cfi_offset 6, -12
 1220              		.cfi_offset 7, -8
 1221              		.cfi_offset 14, -4
 1222 0002 8BB0     		sub	sp, sp, #44
 1223              	.LCFI18:
 1224              		.cfi_def_cfa_offset 64
 493:Core/Src/stm32f4xx_hal_msp.c ****   GPIO_InitTypeDef GPIO_InitStruct = {0};
 1225              		.loc 1 493 3 is_stmt 1 view .LVU357
 1226              		.loc 1 493 20 is_stmt 0 view .LVU358
 1227 0004 0023     		movs	r3, #0
 1228 0006 0593     		str	r3, [sp, #20]
 1229 0008 0693     		str	r3, [sp, #24]
 1230 000a 0793     		str	r3, [sp, #28]
 1231 000c 0893     		str	r3, [sp, #32]
 1232 000e 0993     		str	r3, [sp, #36]
 494:Core/Src/stm32f4xx_hal_msp.c ****   if(hsd->Instance==SDIO)
 1233              		.loc 1 494 3 is_stmt 1 view .LVU359
 1234              		.loc 1 494 9 is_stmt 0 view .LVU360
 1235 0010 0268     		ldr	r2, [r0]
ARM GAS  /tmp/ccvhwIcY.s 			page 36


 1236              		.loc 1 494 5 view .LVU361
 1237 0012 294B     		ldr	r3, .L57
 1238 0014 9A42     		cmp	r2, r3
 1239 0016 01D0     		beq	.L56
 1240              	.LVL64:
 1241              	.L53:
 495:Core/Src/stm32f4xx_hal_msp.c ****   {
 496:Core/Src/stm32f4xx_hal_msp.c ****   /* USER CODE BEGIN SDIO_MspInit 0 */
 497:Core/Src/stm32f4xx_hal_msp.c **** 
 498:Core/Src/stm32f4xx_hal_msp.c ****   /* USER CODE END SDIO_MspInit 0 */
 499:Core/Src/stm32f4xx_hal_msp.c ****     /* Peripheral clock enable */
 500:Core/Src/stm32f4xx_hal_msp.c ****     __HAL_RCC_SDIO_CLK_ENABLE();
 501:Core/Src/stm32f4xx_hal_msp.c **** 
 502:Core/Src/stm32f4xx_hal_msp.c ****     __HAL_RCC_GPIOC_CLK_ENABLE();
 503:Core/Src/stm32f4xx_hal_msp.c ****     __HAL_RCC_GPIOD_CLK_ENABLE();
 504:Core/Src/stm32f4xx_hal_msp.c ****     __HAL_RCC_GPIOB_CLK_ENABLE();
 505:Core/Src/stm32f4xx_hal_msp.c ****     /**SDIO GPIO Configuration
 506:Core/Src/stm32f4xx_hal_msp.c ****     PC8     ------> SDIO_D0
 507:Core/Src/stm32f4xx_hal_msp.c ****     PC9     ------> SDIO_D1
 508:Core/Src/stm32f4xx_hal_msp.c ****     PC10     ------> SDIO_D2
 509:Core/Src/stm32f4xx_hal_msp.c ****     PC12     ------> SDIO_CK
 510:Core/Src/stm32f4xx_hal_msp.c ****     PD2     ------> SDIO_CMD
 511:Core/Src/stm32f4xx_hal_msp.c ****     PB5     ------> SDIO_D3
 512:Core/Src/stm32f4xx_hal_msp.c ****     */
 513:Core/Src/stm32f4xx_hal_msp.c ****     GPIO_InitStruct.Pin = GPIO_PIN_8|GPIO_PIN_9|GPIO_PIN_10|GPIO_PIN_12;
 514:Core/Src/stm32f4xx_hal_msp.c ****     GPIO_InitStruct.Mode = GPIO_MODE_AF_PP;
 515:Core/Src/stm32f4xx_hal_msp.c ****     GPIO_InitStruct.Pull = GPIO_NOPULL;
 516:Core/Src/stm32f4xx_hal_msp.c ****     GPIO_InitStruct.Speed = GPIO_SPEED_FREQ_VERY_HIGH;
 517:Core/Src/stm32f4xx_hal_msp.c ****     GPIO_InitStruct.Alternate = GPIO_AF12_SDIO;
 518:Core/Src/stm32f4xx_hal_msp.c ****     HAL_GPIO_Init(GPIOC, &GPIO_InitStruct);
 519:Core/Src/stm32f4xx_hal_msp.c **** 
 520:Core/Src/stm32f4xx_hal_msp.c ****     GPIO_InitStruct.Pin = GPIO_PIN_2;
 521:Core/Src/stm32f4xx_hal_msp.c ****     GPIO_InitStruct.Mode = GPIO_MODE_AF_PP;
 522:Core/Src/stm32f4xx_hal_msp.c ****     GPIO_InitStruct.Pull = GPIO_NOPULL;
 523:Core/Src/stm32f4xx_hal_msp.c ****     GPIO_InitStruct.Speed = GPIO_SPEED_FREQ_VERY_HIGH;
 524:Core/Src/stm32f4xx_hal_msp.c ****     GPIO_InitStruct.Alternate = GPIO_AF12_SDIO;
 525:Core/Src/stm32f4xx_hal_msp.c ****     HAL_GPIO_Init(GPIOD, &GPIO_InitStruct);
 526:Core/Src/stm32f4xx_hal_msp.c **** 
 527:Core/Src/stm32f4xx_hal_msp.c ****     GPIO_InitStruct.Pin = GPIO_PIN_5;
 528:Core/Src/stm32f4xx_hal_msp.c ****     GPIO_InitStruct.Mode = GPIO_MODE_AF_PP;
 529:Core/Src/stm32f4xx_hal_msp.c ****     GPIO_InitStruct.Pull = GPIO_NOPULL;
 530:Core/Src/stm32f4xx_hal_msp.c ****     GPIO_InitStruct.Speed = GPIO_SPEED_FREQ_VERY_HIGH;
 531:Core/Src/stm32f4xx_hal_msp.c ****     GPIO_InitStruct.Alternate = GPIO_AF12_SDIO;
 532:Core/Src/stm32f4xx_hal_msp.c ****     HAL_GPIO_Init(GPIOB, &GPIO_InitStruct);
 533:Core/Src/stm32f4xx_hal_msp.c **** 
 534:Core/Src/stm32f4xx_hal_msp.c ****   /* USER CODE BEGIN SDIO_MspInit 1 */
 535:Core/Src/stm32f4xx_hal_msp.c **** 
 536:Core/Src/stm32f4xx_hal_msp.c ****   /* USER CODE END SDIO_MspInit 1 */
 537:Core/Src/stm32f4xx_hal_msp.c ****   }
 538:Core/Src/stm32f4xx_hal_msp.c **** 
 539:Core/Src/stm32f4xx_hal_msp.c **** }
 1242              		.loc 1 539 1 view .LVU362
 1243 0018 0BB0     		add	sp, sp, #44
 1244              	.LCFI19:
 1245              		.cfi_remember_state
 1246              		.cfi_def_cfa_offset 20
 1247              		@ sp needed
ARM GAS  /tmp/ccvhwIcY.s 			page 37


 1248 001a F0BD     		pop	{r4, r5, r6, r7, pc}
 1249              	.LVL65:
 1250              	.L56:
 1251              	.LCFI20:
 1252              		.cfi_restore_state
 500:Core/Src/stm32f4xx_hal_msp.c **** 
 1253              		.loc 1 500 5 is_stmt 1 view .LVU363
 1254              	.LBB23:
 500:Core/Src/stm32f4xx_hal_msp.c **** 
 1255              		.loc 1 500 5 view .LVU364
 1256 001c 0024     		movs	r4, #0
 1257 001e 0194     		str	r4, [sp, #4]
 500:Core/Src/stm32f4xx_hal_msp.c **** 
 1258              		.loc 1 500 5 view .LVU365
 1259 0020 03F58633 		add	r3, r3, #68608
 1260 0024 5A6C     		ldr	r2, [r3, #68]
 1261 0026 42F40062 		orr	r2, r2, #2048
 1262 002a 5A64     		str	r2, [r3, #68]
 500:Core/Src/stm32f4xx_hal_msp.c **** 
 1263              		.loc 1 500 5 view .LVU366
 1264 002c 5A6C     		ldr	r2, [r3, #68]
 1265 002e 02F40062 		and	r2, r2, #2048
 1266 0032 0192     		str	r2, [sp, #4]
 500:Core/Src/stm32f4xx_hal_msp.c **** 
 1267              		.loc 1 500 5 view .LVU367
 1268 0034 019A     		ldr	r2, [sp, #4]
 1269              	.LBE23:
 500:Core/Src/stm32f4xx_hal_msp.c **** 
 1270              		.loc 1 500 5 view .LVU368
 502:Core/Src/stm32f4xx_hal_msp.c ****     __HAL_RCC_GPIOD_CLK_ENABLE();
 1271              		.loc 1 502 5 view .LVU369
 1272              	.LBB24:
 502:Core/Src/stm32f4xx_hal_msp.c ****     __HAL_RCC_GPIOD_CLK_ENABLE();
 1273              		.loc 1 502 5 view .LVU370
 1274 0036 0294     		str	r4, [sp, #8]
 502:Core/Src/stm32f4xx_hal_msp.c ****     __HAL_RCC_GPIOD_CLK_ENABLE();
 1275              		.loc 1 502 5 view .LVU371
 1276 0038 1A6B     		ldr	r2, [r3, #48]
 1277 003a 42F00402 		orr	r2, r2, #4
 1278 003e 1A63     		str	r2, [r3, #48]
 502:Core/Src/stm32f4xx_hal_msp.c ****     __HAL_RCC_GPIOD_CLK_ENABLE();
 1279              		.loc 1 502 5 view .LVU372
 1280 0040 1A6B     		ldr	r2, [r3, #48]
 1281 0042 02F00402 		and	r2, r2, #4
 1282 0046 0292     		str	r2, [sp, #8]
 502:Core/Src/stm32f4xx_hal_msp.c ****     __HAL_RCC_GPIOD_CLK_ENABLE();
 1283              		.loc 1 502 5 view .LVU373
 1284 0048 029A     		ldr	r2, [sp, #8]
 1285              	.LBE24:
 502:Core/Src/stm32f4xx_hal_msp.c ****     __HAL_RCC_GPIOD_CLK_ENABLE();
 1286              		.loc 1 502 5 view .LVU374
 503:Core/Src/stm32f4xx_hal_msp.c ****     __HAL_RCC_GPIOB_CLK_ENABLE();
 1287              		.loc 1 503 5 view .LVU375
 1288              	.LBB25:
 503:Core/Src/stm32f4xx_hal_msp.c ****     __HAL_RCC_GPIOB_CLK_ENABLE();
 1289              		.loc 1 503 5 view .LVU376
 1290 004a 0394     		str	r4, [sp, #12]
ARM GAS  /tmp/ccvhwIcY.s 			page 38


 503:Core/Src/stm32f4xx_hal_msp.c ****     __HAL_RCC_GPIOB_CLK_ENABLE();
 1291              		.loc 1 503 5 view .LVU377
 1292 004c 1A6B     		ldr	r2, [r3, #48]
 1293 004e 42F00802 		orr	r2, r2, #8
 1294 0052 1A63     		str	r2, [r3, #48]
 503:Core/Src/stm32f4xx_hal_msp.c ****     __HAL_RCC_GPIOB_CLK_ENABLE();
 1295              		.loc 1 503 5 view .LVU378
 1296 0054 1A6B     		ldr	r2, [r3, #48]
 1297 0056 02F00802 		and	r2, r2, #8
 1298 005a 0392     		str	r2, [sp, #12]
 503:Core/Src/stm32f4xx_hal_msp.c ****     __HAL_RCC_GPIOB_CLK_ENABLE();
 1299              		.loc 1 503 5 view .LVU379
 1300 005c 039A     		ldr	r2, [sp, #12]
 1301              	.LBE25:
 503:Core/Src/stm32f4xx_hal_msp.c ****     __HAL_RCC_GPIOB_CLK_ENABLE();
 1302              		.loc 1 503 5 view .LVU380
 504:Core/Src/stm32f4xx_hal_msp.c ****     /**SDIO GPIO Configuration
 1303              		.loc 1 504 5 view .LVU381
 1304              	.LBB26:
 504:Core/Src/stm32f4xx_hal_msp.c ****     /**SDIO GPIO Configuration
 1305              		.loc 1 504 5 view .LVU382
 1306 005e 0494     		str	r4, [sp, #16]
 504:Core/Src/stm32f4xx_hal_msp.c ****     /**SDIO GPIO Configuration
 1307              		.loc 1 504 5 view .LVU383
 1308 0060 1A6B     		ldr	r2, [r3, #48]
 1309 0062 42F00202 		orr	r2, r2, #2
 1310 0066 1A63     		str	r2, [r3, #48]
 504:Core/Src/stm32f4xx_hal_msp.c ****     /**SDIO GPIO Configuration
 1311              		.loc 1 504 5 view .LVU384
 1312 0068 1B6B     		ldr	r3, [r3, #48]
 1313 006a 03F00203 		and	r3, r3, #2
 1314 006e 0493     		str	r3, [sp, #16]
 504:Core/Src/stm32f4xx_hal_msp.c ****     /**SDIO GPIO Configuration
 1315              		.loc 1 504 5 view .LVU385
 1316 0070 049B     		ldr	r3, [sp, #16]
 1317              	.LBE26:
 504:Core/Src/stm32f4xx_hal_msp.c ****     /**SDIO GPIO Configuration
 1318              		.loc 1 504 5 view .LVU386
 513:Core/Src/stm32f4xx_hal_msp.c ****     GPIO_InitStruct.Mode = GPIO_MODE_AF_PP;
 1319              		.loc 1 513 5 view .LVU387
 513:Core/Src/stm32f4xx_hal_msp.c ****     GPIO_InitStruct.Mode = GPIO_MODE_AF_PP;
 1320              		.loc 1 513 25 is_stmt 0 view .LVU388
 1321 0072 4FF4B853 		mov	r3, #5888
 1322 0076 0593     		str	r3, [sp, #20]
 514:Core/Src/stm32f4xx_hal_msp.c ****     GPIO_InitStruct.Pull = GPIO_NOPULL;
 1323              		.loc 1 514 5 is_stmt 1 view .LVU389
 514:Core/Src/stm32f4xx_hal_msp.c ****     GPIO_InitStruct.Pull = GPIO_NOPULL;
 1324              		.loc 1 514 26 is_stmt 0 view .LVU390
 1325 0078 0227     		movs	r7, #2
 1326 007a 0697     		str	r7, [sp, #24]
 515:Core/Src/stm32f4xx_hal_msp.c ****     GPIO_InitStruct.Speed = GPIO_SPEED_FREQ_VERY_HIGH;
 1327              		.loc 1 515 5 is_stmt 1 view .LVU391
 515:Core/Src/stm32f4xx_hal_msp.c ****     GPIO_InitStruct.Speed = GPIO_SPEED_FREQ_VERY_HIGH;
 1328              		.loc 1 515 26 is_stmt 0 view .LVU392
 1329 007c 0794     		str	r4, [sp, #28]
 516:Core/Src/stm32f4xx_hal_msp.c ****     GPIO_InitStruct.Alternate = GPIO_AF12_SDIO;
 1330              		.loc 1 516 5 is_stmt 1 view .LVU393
ARM GAS  /tmp/ccvhwIcY.s 			page 39


 516:Core/Src/stm32f4xx_hal_msp.c ****     GPIO_InitStruct.Alternate = GPIO_AF12_SDIO;
 1331              		.loc 1 516 27 is_stmt 0 view .LVU394
 1332 007e 0326     		movs	r6, #3
 1333 0080 0896     		str	r6, [sp, #32]
 517:Core/Src/stm32f4xx_hal_msp.c ****     HAL_GPIO_Init(GPIOC, &GPIO_InitStruct);
 1334              		.loc 1 517 5 is_stmt 1 view .LVU395
 517:Core/Src/stm32f4xx_hal_msp.c ****     HAL_GPIO_Init(GPIOC, &GPIO_InitStruct);
 1335              		.loc 1 517 31 is_stmt 0 view .LVU396
 1336 0082 0C25     		movs	r5, #12
 1337 0084 0995     		str	r5, [sp, #36]
 518:Core/Src/stm32f4xx_hal_msp.c **** 
 1338              		.loc 1 518 5 is_stmt 1 view .LVU397
 1339 0086 05A9     		add	r1, sp, #20
 1340 0088 0C48     		ldr	r0, .L57+4
 1341              	.LVL66:
 518:Core/Src/stm32f4xx_hal_msp.c **** 
 1342              		.loc 1 518 5 is_stmt 0 view .LVU398
 1343 008a FFF7FEFF 		bl	HAL_GPIO_Init
 1344              	.LVL67:
 520:Core/Src/stm32f4xx_hal_msp.c ****     GPIO_InitStruct.Mode = GPIO_MODE_AF_PP;
 1345              		.loc 1 520 5 is_stmt 1 view .LVU399
 520:Core/Src/stm32f4xx_hal_msp.c ****     GPIO_InitStruct.Mode = GPIO_MODE_AF_PP;
 1346              		.loc 1 520 25 is_stmt 0 view .LVU400
 1347 008e 0423     		movs	r3, #4
 1348 0090 0593     		str	r3, [sp, #20]
 521:Core/Src/stm32f4xx_hal_msp.c ****     GPIO_InitStruct.Pull = GPIO_NOPULL;
 1349              		.loc 1 521 5 is_stmt 1 view .LVU401
 521:Core/Src/stm32f4xx_hal_msp.c ****     GPIO_InitStruct.Pull = GPIO_NOPULL;
 1350              		.loc 1 521 26 is_stmt 0 view .LVU402
 1351 0092 0697     		str	r7, [sp, #24]
 522:Core/Src/stm32f4xx_hal_msp.c ****     GPIO_InitStruct.Speed = GPIO_SPEED_FREQ_VERY_HIGH;
 1352              		.loc 1 522 5 is_stmt 1 view .LVU403
 522:Core/Src/stm32f4xx_hal_msp.c ****     GPIO_InitStruct.Speed = GPIO_SPEED_FREQ_VERY_HIGH;
 1353              		.loc 1 522 26 is_stmt 0 view .LVU404
 1354 0094 0794     		str	r4, [sp, #28]
 523:Core/Src/stm32f4xx_hal_msp.c ****     GPIO_InitStruct.Alternate = GPIO_AF12_SDIO;
 1355              		.loc 1 523 5 is_stmt 1 view .LVU405
 523:Core/Src/stm32f4xx_hal_msp.c ****     GPIO_InitStruct.Alternate = GPIO_AF12_SDIO;
 1356              		.loc 1 523 27 is_stmt 0 view .LVU406
 1357 0096 0896     		str	r6, [sp, #32]
 524:Core/Src/stm32f4xx_hal_msp.c ****     HAL_GPIO_Init(GPIOD, &GPIO_InitStruct);
 1358              		.loc 1 524 5 is_stmt 1 view .LVU407
 524:Core/Src/stm32f4xx_hal_msp.c ****     HAL_GPIO_Init(GPIOD, &GPIO_InitStruct);
 1359              		.loc 1 524 31 is_stmt 0 view .LVU408
 1360 0098 0995     		str	r5, [sp, #36]
 525:Core/Src/stm32f4xx_hal_msp.c **** 
 1361              		.loc 1 525 5 is_stmt 1 view .LVU409
 1362 009a 05A9     		add	r1, sp, #20
 1363 009c 0848     		ldr	r0, .L57+8
 1364 009e FFF7FEFF 		bl	HAL_GPIO_Init
 1365              	.LVL68:
 527:Core/Src/stm32f4xx_hal_msp.c ****     GPIO_InitStruct.Mode = GPIO_MODE_AF_PP;
 1366              		.loc 1 527 5 view .LVU410
 527:Core/Src/stm32f4xx_hal_msp.c ****     GPIO_InitStruct.Mode = GPIO_MODE_AF_PP;
 1367              		.loc 1 527 25 is_stmt 0 view .LVU411
 1368 00a2 2023     		movs	r3, #32
 1369 00a4 0593     		str	r3, [sp, #20]
ARM GAS  /tmp/ccvhwIcY.s 			page 40


 528:Core/Src/stm32f4xx_hal_msp.c ****     GPIO_InitStruct.Pull = GPIO_NOPULL;
 1370              		.loc 1 528 5 is_stmt 1 view .LVU412
 528:Core/Src/stm32f4xx_hal_msp.c ****     GPIO_InitStruct.Pull = GPIO_NOPULL;
 1371              		.loc 1 528 26 is_stmt 0 view .LVU413
 1372 00a6 0697     		str	r7, [sp, #24]
 529:Core/Src/stm32f4xx_hal_msp.c ****     GPIO_InitStruct.Speed = GPIO_SPEED_FREQ_VERY_HIGH;
 1373              		.loc 1 529 5 is_stmt 1 view .LVU414
 529:Core/Src/stm32f4xx_hal_msp.c ****     GPIO_InitStruct.Speed = GPIO_SPEED_FREQ_VERY_HIGH;
 1374              		.loc 1 529 26 is_stmt 0 view .LVU415
 1375 00a8 0794     		str	r4, [sp, #28]
 530:Core/Src/stm32f4xx_hal_msp.c ****     GPIO_InitStruct.Alternate = GPIO_AF12_SDIO;
 1376              		.loc 1 530 5 is_stmt 1 view .LVU416
 530:Core/Src/stm32f4xx_hal_msp.c ****     GPIO_InitStruct.Alternate = GPIO_AF12_SDIO;
 1377              		.loc 1 530 27 is_stmt 0 view .LVU417
 1378 00aa 0896     		str	r6, [sp, #32]
 531:Core/Src/stm32f4xx_hal_msp.c ****     HAL_GPIO_Init(GPIOB, &GPIO_InitStruct);
 1379              		.loc 1 531 5 is_stmt 1 view .LVU418
 531:Core/Src/stm32f4xx_hal_msp.c ****     HAL_GPIO_Init(GPIOB, &GPIO_InitStruct);
 1380              		.loc 1 531 31 is_stmt 0 view .LVU419
 1381 00ac 0995     		str	r5, [sp, #36]
 532:Core/Src/stm32f4xx_hal_msp.c **** 
 1382              		.loc 1 532 5 is_stmt 1 view .LVU420
 1383 00ae 05A9     		add	r1, sp, #20
 1384 00b0 0448     		ldr	r0, .L57+12
 1385 00b2 FFF7FEFF 		bl	HAL_GPIO_Init
 1386              	.LVL69:
 1387              		.loc 1 539 1 is_stmt 0 view .LVU421
 1388 00b6 AFE7     		b	.L53
 1389              	.L58:
 1390              		.align	2
 1391              	.L57:
 1392 00b8 002C0140 		.word	1073818624
 1393 00bc 00080240 		.word	1073874944
 1394 00c0 000C0240 		.word	1073875968
 1395 00c4 00040240 		.word	1073873920
 1396              		.cfi_endproc
 1397              	.LFE137:
 1399              		.section	.text.HAL_SD_MspDeInit,"ax",%progbits
 1400              		.align	1
 1401              		.global	HAL_SD_MspDeInit
 1402              		.syntax unified
 1403              		.thumb
 1404              		.thumb_func
 1405              		.fpu fpv4-sp-d16
 1407              	HAL_SD_MspDeInit:
 1408              	.LVL70:
 1409              	.LFB138:
 540:Core/Src/stm32f4xx_hal_msp.c **** 
 541:Core/Src/stm32f4xx_hal_msp.c **** /**
 542:Core/Src/stm32f4xx_hal_msp.c **** * @brief SD MSP De-Initialization
 543:Core/Src/stm32f4xx_hal_msp.c **** * This function freeze the hardware resources used in this example
 544:Core/Src/stm32f4xx_hal_msp.c **** * @param hsd: SD handle pointer
 545:Core/Src/stm32f4xx_hal_msp.c **** * @retval None
 546:Core/Src/stm32f4xx_hal_msp.c **** */
 547:Core/Src/stm32f4xx_hal_msp.c **** void HAL_SD_MspDeInit(SD_HandleTypeDef* hsd)
 548:Core/Src/stm32f4xx_hal_msp.c **** {
 1410              		.loc 1 548 1 is_stmt 1 view -0
ARM GAS  /tmp/ccvhwIcY.s 			page 41


 1411              		.cfi_startproc
 1412              		@ args = 0, pretend = 0, frame = 0
 1413              		@ frame_needed = 0, uses_anonymous_args = 0
 1414              		.loc 1 548 1 is_stmt 0 view .LVU423
 1415 0000 08B5     		push	{r3, lr}
 1416              	.LCFI21:
 1417              		.cfi_def_cfa_offset 8
 1418              		.cfi_offset 3, -8
 1419              		.cfi_offset 14, -4
 549:Core/Src/stm32f4xx_hal_msp.c ****   if(hsd->Instance==SDIO)
 1420              		.loc 1 549 3 is_stmt 1 view .LVU424
 1421              		.loc 1 549 9 is_stmt 0 view .LVU425
 1422 0002 0268     		ldr	r2, [r0]
 1423              		.loc 1 549 5 view .LVU426
 1424 0004 0B4B     		ldr	r3, .L63
 1425 0006 9A42     		cmp	r2, r3
 1426 0008 00D0     		beq	.L62
 1427              	.LVL71:
 1428              	.L59:
 550:Core/Src/stm32f4xx_hal_msp.c ****   {
 551:Core/Src/stm32f4xx_hal_msp.c ****   /* USER CODE BEGIN SDIO_MspDeInit 0 */
 552:Core/Src/stm32f4xx_hal_msp.c **** 
 553:Core/Src/stm32f4xx_hal_msp.c ****   /* USER CODE END SDIO_MspDeInit 0 */
 554:Core/Src/stm32f4xx_hal_msp.c ****     /* Peripheral clock disable */
 555:Core/Src/stm32f4xx_hal_msp.c ****     __HAL_RCC_SDIO_CLK_DISABLE();
 556:Core/Src/stm32f4xx_hal_msp.c **** 
 557:Core/Src/stm32f4xx_hal_msp.c ****     /**SDIO GPIO Configuration
 558:Core/Src/stm32f4xx_hal_msp.c ****     PC8     ------> SDIO_D0
 559:Core/Src/stm32f4xx_hal_msp.c ****     PC9     ------> SDIO_D1
 560:Core/Src/stm32f4xx_hal_msp.c ****     PC10     ------> SDIO_D2
 561:Core/Src/stm32f4xx_hal_msp.c ****     PC12     ------> SDIO_CK
 562:Core/Src/stm32f4xx_hal_msp.c ****     PD2     ------> SDIO_CMD
 563:Core/Src/stm32f4xx_hal_msp.c ****     PB5     ------> SDIO_D3
 564:Core/Src/stm32f4xx_hal_msp.c ****     */
 565:Core/Src/stm32f4xx_hal_msp.c ****     HAL_GPIO_DeInit(GPIOC, GPIO_PIN_8|GPIO_PIN_9|GPIO_PIN_10|GPIO_PIN_12);
 566:Core/Src/stm32f4xx_hal_msp.c **** 
 567:Core/Src/stm32f4xx_hal_msp.c ****     HAL_GPIO_DeInit(GPIOD, GPIO_PIN_2);
 568:Core/Src/stm32f4xx_hal_msp.c **** 
 569:Core/Src/stm32f4xx_hal_msp.c ****     HAL_GPIO_DeInit(GPIOB, GPIO_PIN_5);
 570:Core/Src/stm32f4xx_hal_msp.c **** 
 571:Core/Src/stm32f4xx_hal_msp.c ****   /* USER CODE BEGIN SDIO_MspDeInit 1 */
 572:Core/Src/stm32f4xx_hal_msp.c **** 
 573:Core/Src/stm32f4xx_hal_msp.c ****   /* USER CODE END SDIO_MspDeInit 1 */
 574:Core/Src/stm32f4xx_hal_msp.c ****   }
 575:Core/Src/stm32f4xx_hal_msp.c **** 
 576:Core/Src/stm32f4xx_hal_msp.c **** }
 1429              		.loc 1 576 1 view .LVU427
 1430 000a 08BD     		pop	{r3, pc}
 1431              	.LVL72:
 1432              	.L62:
 555:Core/Src/stm32f4xx_hal_msp.c **** 
 1433              		.loc 1 555 5 is_stmt 1 view .LVU428
 1434 000c 0A4A     		ldr	r2, .L63+4
 1435 000e 536C     		ldr	r3, [r2, #68]
 1436 0010 23F40063 		bic	r3, r3, #2048
 1437 0014 5364     		str	r3, [r2, #68]
 565:Core/Src/stm32f4xx_hal_msp.c **** 
ARM GAS  /tmp/ccvhwIcY.s 			page 42


 1438              		.loc 1 565 5 view .LVU429
 1439 0016 4FF4B851 		mov	r1, #5888
 1440 001a 0848     		ldr	r0, .L63+8
 1441              	.LVL73:
 565:Core/Src/stm32f4xx_hal_msp.c **** 
 1442              		.loc 1 565 5 is_stmt 0 view .LVU430
 1443 001c FFF7FEFF 		bl	HAL_GPIO_DeInit
 1444              	.LVL74:
 567:Core/Src/stm32f4xx_hal_msp.c **** 
 1445              		.loc 1 567 5 is_stmt 1 view .LVU431
 1446 0020 0421     		movs	r1, #4
 1447 0022 0748     		ldr	r0, .L63+12
 1448 0024 FFF7FEFF 		bl	HAL_GPIO_DeInit
 1449              	.LVL75:
 569:Core/Src/stm32f4xx_hal_msp.c **** 
 1450              		.loc 1 569 5 view .LVU432
 1451 0028 2021     		movs	r1, #32
 1452 002a 0648     		ldr	r0, .L63+16
 1453 002c FFF7FEFF 		bl	HAL_GPIO_DeInit
 1454              	.LVL76:
 1455              		.loc 1 576 1 is_stmt 0 view .LVU433
 1456 0030 EBE7     		b	.L59
 1457              	.L64:
 1458 0032 00BF     		.align	2
 1459              	.L63:
 1460 0034 002C0140 		.word	1073818624
 1461 0038 00380240 		.word	1073887232
 1462 003c 00080240 		.word	1073874944
 1463 0040 000C0240 		.word	1073875968
 1464 0044 00040240 		.word	1073873920
 1465              		.cfi_endproc
 1466              	.LFE138:
 1468              		.section	.text.HAL_SPI_MspInit,"ax",%progbits
 1469              		.align	1
 1470              		.global	HAL_SPI_MspInit
 1471              		.syntax unified
 1472              		.thumb
 1473              		.thumb_func
 1474              		.fpu fpv4-sp-d16
 1476              	HAL_SPI_MspInit:
 1477              	.LVL77:
 1478              	.LFB139:
 577:Core/Src/stm32f4xx_hal_msp.c **** 
 578:Core/Src/stm32f4xx_hal_msp.c **** /**
 579:Core/Src/stm32f4xx_hal_msp.c **** * @brief SPI MSP Initialization
 580:Core/Src/stm32f4xx_hal_msp.c **** * This function configures the hardware resources used in this example
 581:Core/Src/stm32f4xx_hal_msp.c **** * @param hspi: SPI handle pointer
 582:Core/Src/stm32f4xx_hal_msp.c **** * @retval None
 583:Core/Src/stm32f4xx_hal_msp.c **** */
 584:Core/Src/stm32f4xx_hal_msp.c **** void HAL_SPI_MspInit(SPI_HandleTypeDef* hspi)
 585:Core/Src/stm32f4xx_hal_msp.c **** {
 1479              		.loc 1 585 1 is_stmt 1 view -0
 1480              		.cfi_startproc
 1481              		@ args = 0, pretend = 0, frame = 48
 1482              		@ frame_needed = 0, uses_anonymous_args = 0
 1483              		.loc 1 585 1 is_stmt 0 view .LVU435
 1484 0000 F0B5     		push	{r4, r5, r6, r7, lr}
ARM GAS  /tmp/ccvhwIcY.s 			page 43


 1485              	.LCFI22:
 1486              		.cfi_def_cfa_offset 20
 1487              		.cfi_offset 4, -20
 1488              		.cfi_offset 5, -16
 1489              		.cfi_offset 6, -12
 1490              		.cfi_offset 7, -8
 1491              		.cfi_offset 14, -4
 1492 0002 8DB0     		sub	sp, sp, #52
 1493              	.LCFI23:
 1494              		.cfi_def_cfa_offset 72
 586:Core/Src/stm32f4xx_hal_msp.c ****   GPIO_InitTypeDef GPIO_InitStruct = {0};
 1495              		.loc 1 586 3 is_stmt 1 view .LVU436
 1496              		.loc 1 586 20 is_stmt 0 view .LVU437
 1497 0004 0023     		movs	r3, #0
 1498 0006 0793     		str	r3, [sp, #28]
 1499 0008 0893     		str	r3, [sp, #32]
 1500 000a 0993     		str	r3, [sp, #36]
 1501 000c 0A93     		str	r3, [sp, #40]
 1502 000e 0B93     		str	r3, [sp, #44]
 587:Core/Src/stm32f4xx_hal_msp.c ****   if(hspi->Instance==SPI1)
 1503              		.loc 1 587 3 is_stmt 1 view .LVU438
 1504              		.loc 1 587 10 is_stmt 0 view .LVU439
 1505 0010 0368     		ldr	r3, [r0]
 1506              		.loc 1 587 5 view .LVU440
 1507 0012 3C4A     		ldr	r2, .L71
 1508 0014 9342     		cmp	r3, r2
 1509 0016 04D0     		beq	.L69
 588:Core/Src/stm32f4xx_hal_msp.c ****   {
 589:Core/Src/stm32f4xx_hal_msp.c ****   /* USER CODE BEGIN SPI1_MspInit 0 */
 590:Core/Src/stm32f4xx_hal_msp.c **** 
 591:Core/Src/stm32f4xx_hal_msp.c ****   /* USER CODE END SPI1_MspInit 0 */
 592:Core/Src/stm32f4xx_hal_msp.c ****     /* Peripheral clock enable */
 593:Core/Src/stm32f4xx_hal_msp.c ****     __HAL_RCC_SPI1_CLK_ENABLE();
 594:Core/Src/stm32f4xx_hal_msp.c **** 
 595:Core/Src/stm32f4xx_hal_msp.c ****     __HAL_RCC_GPIOA_CLK_ENABLE();
 596:Core/Src/stm32f4xx_hal_msp.c ****     __HAL_RCC_GPIOB_CLK_ENABLE();
 597:Core/Src/stm32f4xx_hal_msp.c ****     /**SPI1 GPIO Configuration
 598:Core/Src/stm32f4xx_hal_msp.c ****     PA4     ------> SPI1_NSS
 599:Core/Src/stm32f4xx_hal_msp.c ****     PA5     ------> SPI1_SCK
 600:Core/Src/stm32f4xx_hal_msp.c ****     PA7     ------> SPI1_MOSI
 601:Core/Src/stm32f4xx_hal_msp.c ****     PB4     ------> SPI1_MISO
 602:Core/Src/stm32f4xx_hal_msp.c ****     */
 603:Core/Src/stm32f4xx_hal_msp.c ****     GPIO_InitStruct.Pin = GPIO_PIN_4|GPIO_PIN_5|GPIO_PIN_7;
 604:Core/Src/stm32f4xx_hal_msp.c ****     GPIO_InitStruct.Mode = GPIO_MODE_AF_PP;
 605:Core/Src/stm32f4xx_hal_msp.c ****     GPIO_InitStruct.Pull = GPIO_NOPULL;
 606:Core/Src/stm32f4xx_hal_msp.c ****     GPIO_InitStruct.Speed = GPIO_SPEED_FREQ_VERY_HIGH;
 607:Core/Src/stm32f4xx_hal_msp.c ****     GPIO_InitStruct.Alternate = GPIO_AF5_SPI1;
 608:Core/Src/stm32f4xx_hal_msp.c ****     HAL_GPIO_Init(GPIOA, &GPIO_InitStruct);
 609:Core/Src/stm32f4xx_hal_msp.c **** 
 610:Core/Src/stm32f4xx_hal_msp.c ****     GPIO_InitStruct.Pin = GPIO_PIN_4;
 611:Core/Src/stm32f4xx_hal_msp.c ****     GPIO_InitStruct.Mode = GPIO_MODE_AF_PP;
 612:Core/Src/stm32f4xx_hal_msp.c ****     GPIO_InitStruct.Pull = GPIO_NOPULL;
 613:Core/Src/stm32f4xx_hal_msp.c ****     GPIO_InitStruct.Speed = GPIO_SPEED_FREQ_VERY_HIGH;
 614:Core/Src/stm32f4xx_hal_msp.c ****     GPIO_InitStruct.Alternate = GPIO_AF5_SPI1;
 615:Core/Src/stm32f4xx_hal_msp.c ****     HAL_GPIO_Init(GPIOB, &GPIO_InitStruct);
 616:Core/Src/stm32f4xx_hal_msp.c **** 
 617:Core/Src/stm32f4xx_hal_msp.c ****   /* USER CODE BEGIN SPI1_MspInit 1 */
ARM GAS  /tmp/ccvhwIcY.s 			page 44


 618:Core/Src/stm32f4xx_hal_msp.c **** 
 619:Core/Src/stm32f4xx_hal_msp.c ****   /* USER CODE END SPI1_MspInit 1 */
 620:Core/Src/stm32f4xx_hal_msp.c ****   }
 621:Core/Src/stm32f4xx_hal_msp.c ****   else if(hspi->Instance==SPI5)
 1510              		.loc 1 621 8 is_stmt 1 view .LVU441
 1511              		.loc 1 621 10 is_stmt 0 view .LVU442
 1512 0018 3B4A     		ldr	r2, .L71+4
 1513 001a 9342     		cmp	r3, r2
 1514 001c 39D0     		beq	.L70
 1515              	.LVL78:
 1516              	.L65:
 622:Core/Src/stm32f4xx_hal_msp.c ****   {
 623:Core/Src/stm32f4xx_hal_msp.c ****   /* USER CODE BEGIN SPI5_MspInit 0 */
 624:Core/Src/stm32f4xx_hal_msp.c **** 
 625:Core/Src/stm32f4xx_hal_msp.c ****   /* USER CODE END SPI5_MspInit 0 */
 626:Core/Src/stm32f4xx_hal_msp.c ****     /* Peripheral clock enable */
 627:Core/Src/stm32f4xx_hal_msp.c ****     __HAL_RCC_SPI5_CLK_ENABLE();
 628:Core/Src/stm32f4xx_hal_msp.c **** 
 629:Core/Src/stm32f4xx_hal_msp.c ****     __HAL_RCC_GPIOB_CLK_ENABLE();
 630:Core/Src/stm32f4xx_hal_msp.c ****     __HAL_RCC_GPIOE_CLK_ENABLE();
 631:Core/Src/stm32f4xx_hal_msp.c ****     /**SPI5 GPIO Configuration
 632:Core/Src/stm32f4xx_hal_msp.c ****     PB0     ------> SPI5_SCK
 633:Core/Src/stm32f4xx_hal_msp.c ****     PB1     ------> SPI5_NSS
 634:Core/Src/stm32f4xx_hal_msp.c ****     PE13     ------> SPI5_MISO
 635:Core/Src/stm32f4xx_hal_msp.c ****     PE14     ------> SPI5_MOSI
 636:Core/Src/stm32f4xx_hal_msp.c ****     */
 637:Core/Src/stm32f4xx_hal_msp.c ****     GPIO_InitStruct.Pin = GPIO_PIN_0|GPIO_PIN_1;
 638:Core/Src/stm32f4xx_hal_msp.c ****     GPIO_InitStruct.Mode = GPIO_MODE_AF_PP;
 639:Core/Src/stm32f4xx_hal_msp.c ****     GPIO_InitStruct.Pull = GPIO_NOPULL;
 640:Core/Src/stm32f4xx_hal_msp.c ****     GPIO_InitStruct.Speed = GPIO_SPEED_FREQ_VERY_HIGH;
 641:Core/Src/stm32f4xx_hal_msp.c ****     GPIO_InitStruct.Alternate = GPIO_AF6_SPI5;
 642:Core/Src/stm32f4xx_hal_msp.c ****     HAL_GPIO_Init(GPIOB, &GPIO_InitStruct);
 643:Core/Src/stm32f4xx_hal_msp.c **** 
 644:Core/Src/stm32f4xx_hal_msp.c ****     GPIO_InitStruct.Pin = GPIO_PIN_13|GPIO_PIN_14;
 645:Core/Src/stm32f4xx_hal_msp.c ****     GPIO_InitStruct.Mode = GPIO_MODE_AF_PP;
 646:Core/Src/stm32f4xx_hal_msp.c ****     GPIO_InitStruct.Pull = GPIO_NOPULL;
 647:Core/Src/stm32f4xx_hal_msp.c ****     GPIO_InitStruct.Speed = GPIO_SPEED_FREQ_VERY_HIGH;
 648:Core/Src/stm32f4xx_hal_msp.c ****     GPIO_InitStruct.Alternate = GPIO_AF6_SPI5;
 649:Core/Src/stm32f4xx_hal_msp.c ****     HAL_GPIO_Init(GPIOE, &GPIO_InitStruct);
 650:Core/Src/stm32f4xx_hal_msp.c **** 
 651:Core/Src/stm32f4xx_hal_msp.c ****   /* USER CODE BEGIN SPI5_MspInit 1 */
 652:Core/Src/stm32f4xx_hal_msp.c **** 
 653:Core/Src/stm32f4xx_hal_msp.c ****   /* USER CODE END SPI5_MspInit 1 */
 654:Core/Src/stm32f4xx_hal_msp.c ****   }
 655:Core/Src/stm32f4xx_hal_msp.c **** 
 656:Core/Src/stm32f4xx_hal_msp.c **** }
 1517              		.loc 1 656 1 view .LVU443
 1518 001e 0DB0     		add	sp, sp, #52
 1519              	.LCFI24:
 1520              		.cfi_remember_state
 1521              		.cfi_def_cfa_offset 20
 1522              		@ sp needed
 1523 0020 F0BD     		pop	{r4, r5, r6, r7, pc}
 1524              	.LVL79:
 1525              	.L69:
 1526              	.LCFI25:
 1527              		.cfi_restore_state
ARM GAS  /tmp/ccvhwIcY.s 			page 45


 593:Core/Src/stm32f4xx_hal_msp.c **** 
 1528              		.loc 1 593 5 is_stmt 1 view .LVU444
 1529              	.LBB27:
 593:Core/Src/stm32f4xx_hal_msp.c **** 
 1530              		.loc 1 593 5 view .LVU445
 1531 0022 0024     		movs	r4, #0
 1532 0024 0194     		str	r4, [sp, #4]
 593:Core/Src/stm32f4xx_hal_msp.c **** 
 1533              		.loc 1 593 5 view .LVU446
 1534 0026 394B     		ldr	r3, .L71+8
 1535 0028 5A6C     		ldr	r2, [r3, #68]
 1536 002a 42F48052 		orr	r2, r2, #4096
 1537 002e 5A64     		str	r2, [r3, #68]
 593:Core/Src/stm32f4xx_hal_msp.c **** 
 1538              		.loc 1 593 5 view .LVU447
 1539 0030 5A6C     		ldr	r2, [r3, #68]
 1540 0032 02F48052 		and	r2, r2, #4096
 1541 0036 0192     		str	r2, [sp, #4]
 593:Core/Src/stm32f4xx_hal_msp.c **** 
 1542              		.loc 1 593 5 view .LVU448
 1543 0038 019A     		ldr	r2, [sp, #4]
 1544              	.LBE27:
 593:Core/Src/stm32f4xx_hal_msp.c **** 
 1545              		.loc 1 593 5 view .LVU449
 595:Core/Src/stm32f4xx_hal_msp.c ****     __HAL_RCC_GPIOB_CLK_ENABLE();
 1546              		.loc 1 595 5 view .LVU450
 1547              	.LBB28:
 595:Core/Src/stm32f4xx_hal_msp.c ****     __HAL_RCC_GPIOB_CLK_ENABLE();
 1548              		.loc 1 595 5 view .LVU451
 1549 003a 0294     		str	r4, [sp, #8]
 595:Core/Src/stm32f4xx_hal_msp.c ****     __HAL_RCC_GPIOB_CLK_ENABLE();
 1550              		.loc 1 595 5 view .LVU452
 1551 003c 1A6B     		ldr	r2, [r3, #48]
 1552 003e 42F00102 		orr	r2, r2, #1
 1553 0042 1A63     		str	r2, [r3, #48]
 595:Core/Src/stm32f4xx_hal_msp.c ****     __HAL_RCC_GPIOB_CLK_ENABLE();
 1554              		.loc 1 595 5 view .LVU453
 1555 0044 1A6B     		ldr	r2, [r3, #48]
 1556 0046 02F00102 		and	r2, r2, #1
 1557 004a 0292     		str	r2, [sp, #8]
 595:Core/Src/stm32f4xx_hal_msp.c ****     __HAL_RCC_GPIOB_CLK_ENABLE();
 1558              		.loc 1 595 5 view .LVU454
 1559 004c 029A     		ldr	r2, [sp, #8]
 1560              	.LBE28:
 595:Core/Src/stm32f4xx_hal_msp.c ****     __HAL_RCC_GPIOB_CLK_ENABLE();
 1561              		.loc 1 595 5 view .LVU455
 596:Core/Src/stm32f4xx_hal_msp.c ****     /**SPI1 GPIO Configuration
 1562              		.loc 1 596 5 view .LVU456
 1563              	.LBB29:
 596:Core/Src/stm32f4xx_hal_msp.c ****     /**SPI1 GPIO Configuration
 1564              		.loc 1 596 5 view .LVU457
 1565 004e 0394     		str	r4, [sp, #12]
 596:Core/Src/stm32f4xx_hal_msp.c ****     /**SPI1 GPIO Configuration
 1566              		.loc 1 596 5 view .LVU458
 1567 0050 1A6B     		ldr	r2, [r3, #48]
 1568 0052 42F00202 		orr	r2, r2, #2
 1569 0056 1A63     		str	r2, [r3, #48]
ARM GAS  /tmp/ccvhwIcY.s 			page 46


 596:Core/Src/stm32f4xx_hal_msp.c ****     /**SPI1 GPIO Configuration
 1570              		.loc 1 596 5 view .LVU459
 1571 0058 1B6B     		ldr	r3, [r3, #48]
 1572 005a 03F00203 		and	r3, r3, #2
 1573 005e 0393     		str	r3, [sp, #12]
 596:Core/Src/stm32f4xx_hal_msp.c ****     /**SPI1 GPIO Configuration
 1574              		.loc 1 596 5 view .LVU460
 1575 0060 039B     		ldr	r3, [sp, #12]
 1576              	.LBE29:
 596:Core/Src/stm32f4xx_hal_msp.c ****     /**SPI1 GPIO Configuration
 1577              		.loc 1 596 5 view .LVU461
 603:Core/Src/stm32f4xx_hal_msp.c ****     GPIO_InitStruct.Mode = GPIO_MODE_AF_PP;
 1578              		.loc 1 603 5 view .LVU462
 603:Core/Src/stm32f4xx_hal_msp.c ****     GPIO_InitStruct.Mode = GPIO_MODE_AF_PP;
 1579              		.loc 1 603 25 is_stmt 0 view .LVU463
 1580 0062 B023     		movs	r3, #176
 1581 0064 0793     		str	r3, [sp, #28]
 604:Core/Src/stm32f4xx_hal_msp.c ****     GPIO_InitStruct.Pull = GPIO_NOPULL;
 1582              		.loc 1 604 5 is_stmt 1 view .LVU464
 604:Core/Src/stm32f4xx_hal_msp.c ****     GPIO_InitStruct.Pull = GPIO_NOPULL;
 1583              		.loc 1 604 26 is_stmt 0 view .LVU465
 1584 0066 0227     		movs	r7, #2
 1585 0068 0897     		str	r7, [sp, #32]
 605:Core/Src/stm32f4xx_hal_msp.c ****     GPIO_InitStruct.Speed = GPIO_SPEED_FREQ_VERY_HIGH;
 1586              		.loc 1 605 5 is_stmt 1 view .LVU466
 605:Core/Src/stm32f4xx_hal_msp.c ****     GPIO_InitStruct.Speed = GPIO_SPEED_FREQ_VERY_HIGH;
 1587              		.loc 1 605 26 is_stmt 0 view .LVU467
 1588 006a 0994     		str	r4, [sp, #36]
 606:Core/Src/stm32f4xx_hal_msp.c ****     GPIO_InitStruct.Alternate = GPIO_AF5_SPI1;
 1589              		.loc 1 606 5 is_stmt 1 view .LVU468
 606:Core/Src/stm32f4xx_hal_msp.c ****     GPIO_InitStruct.Alternate = GPIO_AF5_SPI1;
 1590              		.loc 1 606 27 is_stmt 0 view .LVU469
 1591 006c 0326     		movs	r6, #3
 1592 006e 0A96     		str	r6, [sp, #40]
 607:Core/Src/stm32f4xx_hal_msp.c ****     HAL_GPIO_Init(GPIOA, &GPIO_InitStruct);
 1593              		.loc 1 607 5 is_stmt 1 view .LVU470
 607:Core/Src/stm32f4xx_hal_msp.c ****     HAL_GPIO_Init(GPIOA, &GPIO_InitStruct);
 1594              		.loc 1 607 31 is_stmt 0 view .LVU471
 1595 0070 0525     		movs	r5, #5
 1596 0072 0B95     		str	r5, [sp, #44]
 608:Core/Src/stm32f4xx_hal_msp.c **** 
 1597              		.loc 1 608 5 is_stmt 1 view .LVU472
 1598 0074 07A9     		add	r1, sp, #28
 1599 0076 2648     		ldr	r0, .L71+12
 1600              	.LVL80:
 608:Core/Src/stm32f4xx_hal_msp.c **** 
 1601              		.loc 1 608 5 is_stmt 0 view .LVU473
 1602 0078 FFF7FEFF 		bl	HAL_GPIO_Init
 1603              	.LVL81:
 610:Core/Src/stm32f4xx_hal_msp.c ****     GPIO_InitStruct.Mode = GPIO_MODE_AF_PP;
 1604              		.loc 1 610 5 is_stmt 1 view .LVU474
 610:Core/Src/stm32f4xx_hal_msp.c ****     GPIO_InitStruct.Mode = GPIO_MODE_AF_PP;
 1605              		.loc 1 610 25 is_stmt 0 view .LVU475
 1606 007c 1023     		movs	r3, #16
 1607 007e 0793     		str	r3, [sp, #28]
 611:Core/Src/stm32f4xx_hal_msp.c ****     GPIO_InitStruct.Pull = GPIO_NOPULL;
 1608              		.loc 1 611 5 is_stmt 1 view .LVU476
ARM GAS  /tmp/ccvhwIcY.s 			page 47


 611:Core/Src/stm32f4xx_hal_msp.c ****     GPIO_InitStruct.Pull = GPIO_NOPULL;
 1609              		.loc 1 611 26 is_stmt 0 view .LVU477
 1610 0080 0897     		str	r7, [sp, #32]
 612:Core/Src/stm32f4xx_hal_msp.c ****     GPIO_InitStruct.Speed = GPIO_SPEED_FREQ_VERY_HIGH;
 1611              		.loc 1 612 5 is_stmt 1 view .LVU478
 612:Core/Src/stm32f4xx_hal_msp.c ****     GPIO_InitStruct.Speed = GPIO_SPEED_FREQ_VERY_HIGH;
 1612              		.loc 1 612 26 is_stmt 0 view .LVU479
 1613 0082 0994     		str	r4, [sp, #36]
 613:Core/Src/stm32f4xx_hal_msp.c ****     GPIO_InitStruct.Alternate = GPIO_AF5_SPI1;
 1614              		.loc 1 613 5 is_stmt 1 view .LVU480
 613:Core/Src/stm32f4xx_hal_msp.c ****     GPIO_InitStruct.Alternate = GPIO_AF5_SPI1;
 1615              		.loc 1 613 27 is_stmt 0 view .LVU481
 1616 0084 0A96     		str	r6, [sp, #40]
 614:Core/Src/stm32f4xx_hal_msp.c ****     HAL_GPIO_Init(GPIOB, &GPIO_InitStruct);
 1617              		.loc 1 614 5 is_stmt 1 view .LVU482
 614:Core/Src/stm32f4xx_hal_msp.c ****     HAL_GPIO_Init(GPIOB, &GPIO_InitStruct);
 1618              		.loc 1 614 31 is_stmt 0 view .LVU483
 1619 0086 0B95     		str	r5, [sp, #44]
 615:Core/Src/stm32f4xx_hal_msp.c **** 
 1620              		.loc 1 615 5 is_stmt 1 view .LVU484
 1621 0088 07A9     		add	r1, sp, #28
 1622 008a 2248     		ldr	r0, .L71+16
 1623 008c FFF7FEFF 		bl	HAL_GPIO_Init
 1624              	.LVL82:
 1625 0090 C5E7     		b	.L65
 1626              	.LVL83:
 1627              	.L70:
 627:Core/Src/stm32f4xx_hal_msp.c **** 
 1628              		.loc 1 627 5 view .LVU485
 1629              	.LBB30:
 627:Core/Src/stm32f4xx_hal_msp.c **** 
 1630              		.loc 1 627 5 view .LVU486
 1631 0092 0024     		movs	r4, #0
 1632 0094 0494     		str	r4, [sp, #16]
 627:Core/Src/stm32f4xx_hal_msp.c **** 
 1633              		.loc 1 627 5 view .LVU487
 1634 0096 1D4B     		ldr	r3, .L71+8
 1635 0098 5A6C     		ldr	r2, [r3, #68]
 1636 009a 42F48012 		orr	r2, r2, #1048576
 1637 009e 5A64     		str	r2, [r3, #68]
 627:Core/Src/stm32f4xx_hal_msp.c **** 
 1638              		.loc 1 627 5 view .LVU488
 1639 00a0 5A6C     		ldr	r2, [r3, #68]
 1640 00a2 02F48012 		and	r2, r2, #1048576
 1641 00a6 0492     		str	r2, [sp, #16]
 627:Core/Src/stm32f4xx_hal_msp.c **** 
 1642              		.loc 1 627 5 view .LVU489
 1643 00a8 049A     		ldr	r2, [sp, #16]
 1644              	.LBE30:
 627:Core/Src/stm32f4xx_hal_msp.c **** 
 1645              		.loc 1 627 5 view .LVU490
 629:Core/Src/stm32f4xx_hal_msp.c ****     __HAL_RCC_GPIOE_CLK_ENABLE();
 1646              		.loc 1 629 5 view .LVU491
 1647              	.LBB31:
 629:Core/Src/stm32f4xx_hal_msp.c ****     __HAL_RCC_GPIOE_CLK_ENABLE();
 1648              		.loc 1 629 5 view .LVU492
 1649 00aa 0594     		str	r4, [sp, #20]
ARM GAS  /tmp/ccvhwIcY.s 			page 48


 629:Core/Src/stm32f4xx_hal_msp.c ****     __HAL_RCC_GPIOE_CLK_ENABLE();
 1650              		.loc 1 629 5 view .LVU493
 1651 00ac 1A6B     		ldr	r2, [r3, #48]
 1652 00ae 42F00202 		orr	r2, r2, #2
 1653 00b2 1A63     		str	r2, [r3, #48]
 629:Core/Src/stm32f4xx_hal_msp.c ****     __HAL_RCC_GPIOE_CLK_ENABLE();
 1654              		.loc 1 629 5 view .LVU494
 1655 00b4 1A6B     		ldr	r2, [r3, #48]
 1656 00b6 02F00202 		and	r2, r2, #2
 1657 00ba 0592     		str	r2, [sp, #20]
 629:Core/Src/stm32f4xx_hal_msp.c ****     __HAL_RCC_GPIOE_CLK_ENABLE();
 1658              		.loc 1 629 5 view .LVU495
 1659 00bc 059A     		ldr	r2, [sp, #20]
 1660              	.LBE31:
 629:Core/Src/stm32f4xx_hal_msp.c ****     __HAL_RCC_GPIOE_CLK_ENABLE();
 1661              		.loc 1 629 5 view .LVU496
 630:Core/Src/stm32f4xx_hal_msp.c ****     /**SPI5 GPIO Configuration
 1662              		.loc 1 630 5 view .LVU497
 1663              	.LBB32:
 630:Core/Src/stm32f4xx_hal_msp.c ****     /**SPI5 GPIO Configuration
 1664              		.loc 1 630 5 view .LVU498
 1665 00be 0694     		str	r4, [sp, #24]
 630:Core/Src/stm32f4xx_hal_msp.c ****     /**SPI5 GPIO Configuration
 1666              		.loc 1 630 5 view .LVU499
 1667 00c0 1A6B     		ldr	r2, [r3, #48]
 1668 00c2 42F01002 		orr	r2, r2, #16
 1669 00c6 1A63     		str	r2, [r3, #48]
 630:Core/Src/stm32f4xx_hal_msp.c ****     /**SPI5 GPIO Configuration
 1670              		.loc 1 630 5 view .LVU500
 1671 00c8 1B6B     		ldr	r3, [r3, #48]
 1672 00ca 03F01003 		and	r3, r3, #16
 1673 00ce 0693     		str	r3, [sp, #24]
 630:Core/Src/stm32f4xx_hal_msp.c ****     /**SPI5 GPIO Configuration
 1674              		.loc 1 630 5 view .LVU501
 1675 00d0 069B     		ldr	r3, [sp, #24]
 1676              	.LBE32:
 630:Core/Src/stm32f4xx_hal_msp.c ****     /**SPI5 GPIO Configuration
 1677              		.loc 1 630 5 view .LVU502
 637:Core/Src/stm32f4xx_hal_msp.c ****     GPIO_InitStruct.Mode = GPIO_MODE_AF_PP;
 1678              		.loc 1 637 5 view .LVU503
 637:Core/Src/stm32f4xx_hal_msp.c ****     GPIO_InitStruct.Mode = GPIO_MODE_AF_PP;
 1679              		.loc 1 637 25 is_stmt 0 view .LVU504
 1680 00d2 0325     		movs	r5, #3
 1681 00d4 0795     		str	r5, [sp, #28]
 638:Core/Src/stm32f4xx_hal_msp.c ****     GPIO_InitStruct.Pull = GPIO_NOPULL;
 1682              		.loc 1 638 5 is_stmt 1 view .LVU505
 638:Core/Src/stm32f4xx_hal_msp.c ****     GPIO_InitStruct.Pull = GPIO_NOPULL;
 1683              		.loc 1 638 26 is_stmt 0 view .LVU506
 1684 00d6 0227     		movs	r7, #2
 1685 00d8 0897     		str	r7, [sp, #32]
 639:Core/Src/stm32f4xx_hal_msp.c ****     GPIO_InitStruct.Speed = GPIO_SPEED_FREQ_VERY_HIGH;
 1686              		.loc 1 639 5 is_stmt 1 view .LVU507
 639:Core/Src/stm32f4xx_hal_msp.c ****     GPIO_InitStruct.Speed = GPIO_SPEED_FREQ_VERY_HIGH;
 1687              		.loc 1 639 26 is_stmt 0 view .LVU508
 1688 00da 0994     		str	r4, [sp, #36]
 640:Core/Src/stm32f4xx_hal_msp.c ****     GPIO_InitStruct.Alternate = GPIO_AF6_SPI5;
 1689              		.loc 1 640 5 is_stmt 1 view .LVU509
ARM GAS  /tmp/ccvhwIcY.s 			page 49


 640:Core/Src/stm32f4xx_hal_msp.c ****     GPIO_InitStruct.Alternate = GPIO_AF6_SPI5;
 1690              		.loc 1 640 27 is_stmt 0 view .LVU510
 1691 00dc 0A95     		str	r5, [sp, #40]
 641:Core/Src/stm32f4xx_hal_msp.c ****     HAL_GPIO_Init(GPIOB, &GPIO_InitStruct);
 1692              		.loc 1 641 5 is_stmt 1 view .LVU511
 641:Core/Src/stm32f4xx_hal_msp.c ****     HAL_GPIO_Init(GPIOB, &GPIO_InitStruct);
 1693              		.loc 1 641 31 is_stmt 0 view .LVU512
 1694 00de 0626     		movs	r6, #6
 1695 00e0 0B96     		str	r6, [sp, #44]
 642:Core/Src/stm32f4xx_hal_msp.c **** 
 1696              		.loc 1 642 5 is_stmt 1 view .LVU513
 1697 00e2 07A9     		add	r1, sp, #28
 1698 00e4 0B48     		ldr	r0, .L71+16
 1699              	.LVL84:
 642:Core/Src/stm32f4xx_hal_msp.c **** 
 1700              		.loc 1 642 5 is_stmt 0 view .LVU514
 1701 00e6 FFF7FEFF 		bl	HAL_GPIO_Init
 1702              	.LVL85:
 644:Core/Src/stm32f4xx_hal_msp.c ****     GPIO_InitStruct.Mode = GPIO_MODE_AF_PP;
 1703              		.loc 1 644 5 is_stmt 1 view .LVU515
 644:Core/Src/stm32f4xx_hal_msp.c ****     GPIO_InitStruct.Mode = GPIO_MODE_AF_PP;
 1704              		.loc 1 644 25 is_stmt 0 view .LVU516
 1705 00ea 4FF4C043 		mov	r3, #24576
 1706 00ee 0793     		str	r3, [sp, #28]
 645:Core/Src/stm32f4xx_hal_msp.c ****     GPIO_InitStruct.Pull = GPIO_NOPULL;
 1707              		.loc 1 645 5 is_stmt 1 view .LVU517
 645:Core/Src/stm32f4xx_hal_msp.c ****     GPIO_InitStruct.Pull = GPIO_NOPULL;
 1708              		.loc 1 645 26 is_stmt 0 view .LVU518
 1709 00f0 0897     		str	r7, [sp, #32]
 646:Core/Src/stm32f4xx_hal_msp.c ****     GPIO_InitStruct.Speed = GPIO_SPEED_FREQ_VERY_HIGH;
 1710              		.loc 1 646 5 is_stmt 1 view .LVU519
 646:Core/Src/stm32f4xx_hal_msp.c ****     GPIO_InitStruct.Speed = GPIO_SPEED_FREQ_VERY_HIGH;
 1711              		.loc 1 646 26 is_stmt 0 view .LVU520
 1712 00f2 0994     		str	r4, [sp, #36]
 647:Core/Src/stm32f4xx_hal_msp.c ****     GPIO_InitStruct.Alternate = GPIO_AF6_SPI5;
 1713              		.loc 1 647 5 is_stmt 1 view .LVU521
 647:Core/Src/stm32f4xx_hal_msp.c ****     GPIO_InitStruct.Alternate = GPIO_AF6_SPI5;
 1714              		.loc 1 647 27 is_stmt 0 view .LVU522
 1715 00f4 0A95     		str	r5, [sp, #40]
 648:Core/Src/stm32f4xx_hal_msp.c ****     HAL_GPIO_Init(GPIOE, &GPIO_InitStruct);
 1716              		.loc 1 648 5 is_stmt 1 view .LVU523
 648:Core/Src/stm32f4xx_hal_msp.c ****     HAL_GPIO_Init(GPIOE, &GPIO_InitStruct);
 1717              		.loc 1 648 31 is_stmt 0 view .LVU524
 1718 00f6 0B96     		str	r6, [sp, #44]
 649:Core/Src/stm32f4xx_hal_msp.c **** 
 1719              		.loc 1 649 5 is_stmt 1 view .LVU525
 1720 00f8 07A9     		add	r1, sp, #28
 1721 00fa 0748     		ldr	r0, .L71+20
 1722 00fc FFF7FEFF 		bl	HAL_GPIO_Init
 1723              	.LVL86:
 1724              		.loc 1 656 1 is_stmt 0 view .LVU526
 1725 0100 8DE7     		b	.L65
 1726              	.L72:
 1727 0102 00BF     		.align	2
 1728              	.L71:
 1729 0104 00300140 		.word	1073819648
 1730 0108 00500140 		.word	1073827840
ARM GAS  /tmp/ccvhwIcY.s 			page 50


 1731 010c 00380240 		.word	1073887232
 1732 0110 00000240 		.word	1073872896
 1733 0114 00040240 		.word	1073873920
 1734 0118 00100240 		.word	1073876992
 1735              		.cfi_endproc
 1736              	.LFE139:
 1738              		.section	.text.HAL_SPI_MspDeInit,"ax",%progbits
 1739              		.align	1
 1740              		.global	HAL_SPI_MspDeInit
 1741              		.syntax unified
 1742              		.thumb
 1743              		.thumb_func
 1744              		.fpu fpv4-sp-d16
 1746              	HAL_SPI_MspDeInit:
 1747              	.LVL87:
 1748              	.LFB140:
 657:Core/Src/stm32f4xx_hal_msp.c **** 
 658:Core/Src/stm32f4xx_hal_msp.c **** /**
 659:Core/Src/stm32f4xx_hal_msp.c **** * @brief SPI MSP De-Initialization
 660:Core/Src/stm32f4xx_hal_msp.c **** * This function freeze the hardware resources used in this example
 661:Core/Src/stm32f4xx_hal_msp.c **** * @param hspi: SPI handle pointer
 662:Core/Src/stm32f4xx_hal_msp.c **** * @retval None
 663:Core/Src/stm32f4xx_hal_msp.c **** */
 664:Core/Src/stm32f4xx_hal_msp.c **** void HAL_SPI_MspDeInit(SPI_HandleTypeDef* hspi)
 665:Core/Src/stm32f4xx_hal_msp.c **** {
 1749              		.loc 1 665 1 is_stmt 1 view -0
 1750              		.cfi_startproc
 1751              		@ args = 0, pretend = 0, frame = 0
 1752              		@ frame_needed = 0, uses_anonymous_args = 0
 1753              		.loc 1 665 1 is_stmt 0 view .LVU528
 1754 0000 08B5     		push	{r3, lr}
 1755              	.LCFI26:
 1756              		.cfi_def_cfa_offset 8
 1757              		.cfi_offset 3, -8
 1758              		.cfi_offset 14, -4
 666:Core/Src/stm32f4xx_hal_msp.c ****   if(hspi->Instance==SPI1)
 1759              		.loc 1 666 3 is_stmt 1 view .LVU529
 1760              		.loc 1 666 10 is_stmt 0 view .LVU530
 1761 0002 0368     		ldr	r3, [r0]
 1762              		.loc 1 666 5 view .LVU531
 1763 0004 124A     		ldr	r2, .L79
 1764 0006 9342     		cmp	r3, r2
 1765 0008 03D0     		beq	.L77
 667:Core/Src/stm32f4xx_hal_msp.c ****   {
 668:Core/Src/stm32f4xx_hal_msp.c ****   /* USER CODE BEGIN SPI1_MspDeInit 0 */
 669:Core/Src/stm32f4xx_hal_msp.c **** 
 670:Core/Src/stm32f4xx_hal_msp.c ****   /* USER CODE END SPI1_MspDeInit 0 */
 671:Core/Src/stm32f4xx_hal_msp.c ****     /* Peripheral clock disable */
 672:Core/Src/stm32f4xx_hal_msp.c ****     __HAL_RCC_SPI1_CLK_DISABLE();
 673:Core/Src/stm32f4xx_hal_msp.c **** 
 674:Core/Src/stm32f4xx_hal_msp.c ****     /**SPI1 GPIO Configuration
 675:Core/Src/stm32f4xx_hal_msp.c ****     PA4     ------> SPI1_NSS
 676:Core/Src/stm32f4xx_hal_msp.c ****     PA5     ------> SPI1_SCK
 677:Core/Src/stm32f4xx_hal_msp.c ****     PA7     ------> SPI1_MOSI
 678:Core/Src/stm32f4xx_hal_msp.c ****     PB4     ------> SPI1_MISO
 679:Core/Src/stm32f4xx_hal_msp.c ****     */
 680:Core/Src/stm32f4xx_hal_msp.c ****     HAL_GPIO_DeInit(GPIOA, GPIO_PIN_4|GPIO_PIN_5|GPIO_PIN_7);
ARM GAS  /tmp/ccvhwIcY.s 			page 51


 681:Core/Src/stm32f4xx_hal_msp.c **** 
 682:Core/Src/stm32f4xx_hal_msp.c ****     HAL_GPIO_DeInit(GPIOB, GPIO_PIN_4);
 683:Core/Src/stm32f4xx_hal_msp.c **** 
 684:Core/Src/stm32f4xx_hal_msp.c ****   /* USER CODE BEGIN SPI1_MspDeInit 1 */
 685:Core/Src/stm32f4xx_hal_msp.c **** 
 686:Core/Src/stm32f4xx_hal_msp.c ****   /* USER CODE END SPI1_MspDeInit 1 */
 687:Core/Src/stm32f4xx_hal_msp.c ****   }
 688:Core/Src/stm32f4xx_hal_msp.c ****   else if(hspi->Instance==SPI5)
 1766              		.loc 1 688 8 is_stmt 1 view .LVU532
 1767              		.loc 1 688 10 is_stmt 0 view .LVU533
 1768 000a 124A     		ldr	r2, .L79+4
 1769 000c 9342     		cmp	r3, r2
 1770 000e 0FD0     		beq	.L78
 1771              	.LVL88:
 1772              	.L73:
 689:Core/Src/stm32f4xx_hal_msp.c ****   {
 690:Core/Src/stm32f4xx_hal_msp.c ****   /* USER CODE BEGIN SPI5_MspDeInit 0 */
 691:Core/Src/stm32f4xx_hal_msp.c **** 
 692:Core/Src/stm32f4xx_hal_msp.c ****   /* USER CODE END SPI5_MspDeInit 0 */
 693:Core/Src/stm32f4xx_hal_msp.c ****     /* Peripheral clock disable */
 694:Core/Src/stm32f4xx_hal_msp.c ****     __HAL_RCC_SPI5_CLK_DISABLE();
 695:Core/Src/stm32f4xx_hal_msp.c **** 
 696:Core/Src/stm32f4xx_hal_msp.c ****     /**SPI5 GPIO Configuration
 697:Core/Src/stm32f4xx_hal_msp.c ****     PB0     ------> SPI5_SCK
 698:Core/Src/stm32f4xx_hal_msp.c ****     PB1     ------> SPI5_NSS
 699:Core/Src/stm32f4xx_hal_msp.c ****     PE13     ------> SPI5_MISO
 700:Core/Src/stm32f4xx_hal_msp.c ****     PE14     ------> SPI5_MOSI
 701:Core/Src/stm32f4xx_hal_msp.c ****     */
 702:Core/Src/stm32f4xx_hal_msp.c ****     HAL_GPIO_DeInit(GPIOB, GPIO_PIN_0|GPIO_PIN_1);
 703:Core/Src/stm32f4xx_hal_msp.c **** 
 704:Core/Src/stm32f4xx_hal_msp.c ****     HAL_GPIO_DeInit(GPIOE, GPIO_PIN_13|GPIO_PIN_14);
 705:Core/Src/stm32f4xx_hal_msp.c **** 
 706:Core/Src/stm32f4xx_hal_msp.c ****   /* USER CODE BEGIN SPI5_MspDeInit 1 */
 707:Core/Src/stm32f4xx_hal_msp.c **** 
 708:Core/Src/stm32f4xx_hal_msp.c ****   /* USER CODE END SPI5_MspDeInit 1 */
 709:Core/Src/stm32f4xx_hal_msp.c ****   }
 710:Core/Src/stm32f4xx_hal_msp.c **** 
 711:Core/Src/stm32f4xx_hal_msp.c **** }
 1773              		.loc 1 711 1 view .LVU534
 1774 0010 08BD     		pop	{r3, pc}
 1775              	.LVL89:
 1776              	.L77:
 672:Core/Src/stm32f4xx_hal_msp.c **** 
 1777              		.loc 1 672 5 is_stmt 1 view .LVU535
 1778 0012 02F58432 		add	r2, r2, #67584
 1779 0016 536C     		ldr	r3, [r2, #68]
 1780 0018 23F48053 		bic	r3, r3, #4096
 1781 001c 5364     		str	r3, [r2, #68]
 680:Core/Src/stm32f4xx_hal_msp.c **** 
 1782              		.loc 1 680 5 view .LVU536
 1783 001e B021     		movs	r1, #176
 1784 0020 0D48     		ldr	r0, .L79+8
 1785              	.LVL90:
 680:Core/Src/stm32f4xx_hal_msp.c **** 
 1786              		.loc 1 680 5 is_stmt 0 view .LVU537
 1787 0022 FFF7FEFF 		bl	HAL_GPIO_DeInit
 1788              	.LVL91:
ARM GAS  /tmp/ccvhwIcY.s 			page 52


 682:Core/Src/stm32f4xx_hal_msp.c **** 
 1789              		.loc 1 682 5 is_stmt 1 view .LVU538
 1790 0026 1021     		movs	r1, #16
 1791 0028 0C48     		ldr	r0, .L79+12
 1792 002a FFF7FEFF 		bl	HAL_GPIO_DeInit
 1793              	.LVL92:
 1794 002e EFE7     		b	.L73
 1795              	.LVL93:
 1796              	.L78:
 694:Core/Src/stm32f4xx_hal_msp.c **** 
 1797              		.loc 1 694 5 view .LVU539
 1798 0030 02F56842 		add	r2, r2, #59392
 1799 0034 536C     		ldr	r3, [r2, #68]
 1800 0036 23F48013 		bic	r3, r3, #1048576
 1801 003a 5364     		str	r3, [r2, #68]
 702:Core/Src/stm32f4xx_hal_msp.c **** 
 1802              		.loc 1 702 5 view .LVU540
 1803 003c 0321     		movs	r1, #3
 1804 003e 0748     		ldr	r0, .L79+12
 1805              	.LVL94:
 702:Core/Src/stm32f4xx_hal_msp.c **** 
 1806              		.loc 1 702 5 is_stmt 0 view .LVU541
 1807 0040 FFF7FEFF 		bl	HAL_GPIO_DeInit
 1808              	.LVL95:
 704:Core/Src/stm32f4xx_hal_msp.c **** 
 1809              		.loc 1 704 5 is_stmt 1 view .LVU542
 1810 0044 4FF4C041 		mov	r1, #24576
 1811 0048 0548     		ldr	r0, .L79+16
 1812 004a FFF7FEFF 		bl	HAL_GPIO_DeInit
 1813              	.LVL96:
 1814              		.loc 1 711 1 is_stmt 0 view .LVU543
 1815 004e DFE7     		b	.L73
 1816              	.L80:
 1817              		.align	2
 1818              	.L79:
 1819 0050 00300140 		.word	1073819648
 1820 0054 00500140 		.word	1073827840
 1821 0058 00000240 		.word	1073872896
 1822 005c 00040240 		.word	1073873920
 1823 0060 00100240 		.word	1073876992
 1824              		.cfi_endproc
 1825              	.LFE140:
 1827              		.section	.text.HAL_TIM_Base_MspInit,"ax",%progbits
 1828              		.align	1
 1829              		.global	HAL_TIM_Base_MspInit
 1830              		.syntax unified
 1831              		.thumb
 1832              		.thumb_func
 1833              		.fpu fpv4-sp-d16
 1835              	HAL_TIM_Base_MspInit:
 1836              	.LVL97:
 1837              	.LFB141:
 712:Core/Src/stm32f4xx_hal_msp.c **** 
 713:Core/Src/stm32f4xx_hal_msp.c **** /**
 714:Core/Src/stm32f4xx_hal_msp.c **** * @brief TIM_Base MSP Initialization
 715:Core/Src/stm32f4xx_hal_msp.c **** * This function configures the hardware resources used in this example
 716:Core/Src/stm32f4xx_hal_msp.c **** * @param htim_base: TIM_Base handle pointer
ARM GAS  /tmp/ccvhwIcY.s 			page 53


 717:Core/Src/stm32f4xx_hal_msp.c **** * @retval None
 718:Core/Src/stm32f4xx_hal_msp.c **** */
 719:Core/Src/stm32f4xx_hal_msp.c **** void HAL_TIM_Base_MspInit(TIM_HandleTypeDef* htim_base)
 720:Core/Src/stm32f4xx_hal_msp.c **** {
 1838              		.loc 1 720 1 is_stmt 1 view -0
 1839              		.cfi_startproc
 1840              		@ args = 0, pretend = 0, frame = 16
 1841              		@ frame_needed = 0, uses_anonymous_args = 0
 1842              		.loc 1 720 1 is_stmt 0 view .LVU545
 1843 0000 00B5     		push	{lr}
 1844              	.LCFI27:
 1845              		.cfi_def_cfa_offset 4
 1846              		.cfi_offset 14, -4
 1847 0002 85B0     		sub	sp, sp, #20
 1848              	.LCFI28:
 1849              		.cfi_def_cfa_offset 24
 721:Core/Src/stm32f4xx_hal_msp.c ****   if(htim_base->Instance==TIM5)
 1850              		.loc 1 721 3 is_stmt 1 view .LVU546
 1851              		.loc 1 721 15 is_stmt 0 view .LVU547
 1852 0004 0368     		ldr	r3, [r0]
 1853              		.loc 1 721 5 view .LVU548
 1854 0006 1D4A     		ldr	r2, .L89
 1855 0008 9342     		cmp	r3, r2
 1856 000a 08D0     		beq	.L86
 722:Core/Src/stm32f4xx_hal_msp.c ****   {
 723:Core/Src/stm32f4xx_hal_msp.c ****   /* USER CODE BEGIN TIM5_MspInit 0 */
 724:Core/Src/stm32f4xx_hal_msp.c **** 
 725:Core/Src/stm32f4xx_hal_msp.c ****   /* USER CODE END TIM5_MspInit 0 */
 726:Core/Src/stm32f4xx_hal_msp.c ****     /* Peripheral clock enable */
 727:Core/Src/stm32f4xx_hal_msp.c ****     __HAL_RCC_TIM5_CLK_ENABLE();
 728:Core/Src/stm32f4xx_hal_msp.c ****   /* USER CODE BEGIN TIM5_MspInit 1 */
 729:Core/Src/stm32f4xx_hal_msp.c **** 
 730:Core/Src/stm32f4xx_hal_msp.c ****   /* USER CODE END TIM5_MspInit 1 */
 731:Core/Src/stm32f4xx_hal_msp.c ****   }
 732:Core/Src/stm32f4xx_hal_msp.c ****   else if(htim_base->Instance==TIM9)
 1857              		.loc 1 732 8 is_stmt 1 view .LVU549
 1858              		.loc 1 732 10 is_stmt 0 view .LVU550
 1859 000c 1C4A     		ldr	r2, .L89+4
 1860 000e 9342     		cmp	r3, r2
 1861 0010 12D0     		beq	.L87
 733:Core/Src/stm32f4xx_hal_msp.c ****   {
 734:Core/Src/stm32f4xx_hal_msp.c ****   /* USER CODE BEGIN TIM9_MspInit 0 */
 735:Core/Src/stm32f4xx_hal_msp.c **** 
 736:Core/Src/stm32f4xx_hal_msp.c ****   /* USER CODE END TIM9_MspInit 0 */
 737:Core/Src/stm32f4xx_hal_msp.c ****     /* Peripheral clock enable */
 738:Core/Src/stm32f4xx_hal_msp.c ****     __HAL_RCC_TIM9_CLK_ENABLE();
 739:Core/Src/stm32f4xx_hal_msp.c ****   /* USER CODE BEGIN TIM9_MspInit 1 */
 740:Core/Src/stm32f4xx_hal_msp.c **** 
 741:Core/Src/stm32f4xx_hal_msp.c ****   /* USER CODE END TIM9_MspInit 1 */
 742:Core/Src/stm32f4xx_hal_msp.c ****   }
 743:Core/Src/stm32f4xx_hal_msp.c ****   else if(htim_base->Instance==TIM10)
 1862              		.loc 1 743 8 is_stmt 1 view .LVU551
 1863              		.loc 1 743 10 is_stmt 0 view .LVU552
 1864 0012 1C4A     		ldr	r2, .L89+8
 1865 0014 9342     		cmp	r3, r2
 1866 0016 1CD0     		beq	.L88
 1867              	.LVL98:
ARM GAS  /tmp/ccvhwIcY.s 			page 54


 1868              	.L81:
 744:Core/Src/stm32f4xx_hal_msp.c ****   {
 745:Core/Src/stm32f4xx_hal_msp.c ****   /* USER CODE BEGIN TIM10_MspInit 0 */
 746:Core/Src/stm32f4xx_hal_msp.c **** 
 747:Core/Src/stm32f4xx_hal_msp.c ****   /* USER CODE END TIM10_MspInit 0 */
 748:Core/Src/stm32f4xx_hal_msp.c ****     /* Peripheral clock enable */
 749:Core/Src/stm32f4xx_hal_msp.c ****     __HAL_RCC_TIM10_CLK_ENABLE();
 750:Core/Src/stm32f4xx_hal_msp.c ****     /* TIM10 interrupt Init */
 751:Core/Src/stm32f4xx_hal_msp.c ****     HAL_NVIC_SetPriority(TIM1_UP_TIM10_IRQn, 0, 0);
 752:Core/Src/stm32f4xx_hal_msp.c ****     HAL_NVIC_EnableIRQ(TIM1_UP_TIM10_IRQn);
 753:Core/Src/stm32f4xx_hal_msp.c ****   /* USER CODE BEGIN TIM10_MspInit 1 */
 754:Core/Src/stm32f4xx_hal_msp.c **** 
 755:Core/Src/stm32f4xx_hal_msp.c ****   /* USER CODE END TIM10_MspInit 1 */
 756:Core/Src/stm32f4xx_hal_msp.c ****   }
 757:Core/Src/stm32f4xx_hal_msp.c **** 
 758:Core/Src/stm32f4xx_hal_msp.c **** }
 1869              		.loc 1 758 1 view .LVU553
 1870 0018 05B0     		add	sp, sp, #20
 1871              	.LCFI29:
 1872              		.cfi_remember_state
 1873              		.cfi_def_cfa_offset 4
 1874              		@ sp needed
 1875 001a 5DF804FB 		ldr	pc, [sp], #4
 1876              	.LVL99:
 1877              	.L86:
 1878              	.LCFI30:
 1879              		.cfi_restore_state
 727:Core/Src/stm32f4xx_hal_msp.c ****   /* USER CODE BEGIN TIM5_MspInit 1 */
 1880              		.loc 1 727 5 is_stmt 1 view .LVU554
 1881              	.LBB33:
 727:Core/Src/stm32f4xx_hal_msp.c ****   /* USER CODE BEGIN TIM5_MspInit 1 */
 1882              		.loc 1 727 5 view .LVU555
 1883 001e 0023     		movs	r3, #0
 1884 0020 0193     		str	r3, [sp, #4]
 727:Core/Src/stm32f4xx_hal_msp.c ****   /* USER CODE BEGIN TIM5_MspInit 1 */
 1885              		.loc 1 727 5 view .LVU556
 1886 0022 194B     		ldr	r3, .L89+12
 1887 0024 1A6C     		ldr	r2, [r3, #64]
 1888 0026 42F00802 		orr	r2, r2, #8
 1889 002a 1A64     		str	r2, [r3, #64]
 727:Core/Src/stm32f4xx_hal_msp.c ****   /* USER CODE BEGIN TIM5_MspInit 1 */
 1890              		.loc 1 727 5 view .LVU557
 1891 002c 1B6C     		ldr	r3, [r3, #64]
 1892 002e 03F00803 		and	r3, r3, #8
 1893 0032 0193     		str	r3, [sp, #4]
 727:Core/Src/stm32f4xx_hal_msp.c ****   /* USER CODE BEGIN TIM5_MspInit 1 */
 1894              		.loc 1 727 5 view .LVU558
 1895 0034 019B     		ldr	r3, [sp, #4]
 1896              	.LBE33:
 727:Core/Src/stm32f4xx_hal_msp.c ****   /* USER CODE BEGIN TIM5_MspInit 1 */
 1897              		.loc 1 727 5 view .LVU559
 1898 0036 EFE7     		b	.L81
 1899              	.L87:
 738:Core/Src/stm32f4xx_hal_msp.c ****   /* USER CODE BEGIN TIM9_MspInit 1 */
 1900              		.loc 1 738 5 view .LVU560
 1901              	.LBB34:
 738:Core/Src/stm32f4xx_hal_msp.c ****   /* USER CODE BEGIN TIM9_MspInit 1 */
ARM GAS  /tmp/ccvhwIcY.s 			page 55


 1902              		.loc 1 738 5 view .LVU561
 1903 0038 0023     		movs	r3, #0
 1904 003a 0293     		str	r3, [sp, #8]
 738:Core/Src/stm32f4xx_hal_msp.c ****   /* USER CODE BEGIN TIM9_MspInit 1 */
 1905              		.loc 1 738 5 view .LVU562
 1906 003c 124B     		ldr	r3, .L89+12
 1907 003e 5A6C     		ldr	r2, [r3, #68]
 1908 0040 42F48032 		orr	r2, r2, #65536
 1909 0044 5A64     		str	r2, [r3, #68]
 738:Core/Src/stm32f4xx_hal_msp.c ****   /* USER CODE BEGIN TIM9_MspInit 1 */
 1910              		.loc 1 738 5 view .LVU563
 1911 0046 5B6C     		ldr	r3, [r3, #68]
 1912 0048 03F48033 		and	r3, r3, #65536
 1913 004c 0293     		str	r3, [sp, #8]
 738:Core/Src/stm32f4xx_hal_msp.c ****   /* USER CODE BEGIN TIM9_MspInit 1 */
 1914              		.loc 1 738 5 view .LVU564
 1915 004e 029B     		ldr	r3, [sp, #8]
 1916              	.LBE34:
 738:Core/Src/stm32f4xx_hal_msp.c ****   /* USER CODE BEGIN TIM9_MspInit 1 */
 1917              		.loc 1 738 5 view .LVU565
 1918 0050 E2E7     		b	.L81
 1919              	.L88:
 749:Core/Src/stm32f4xx_hal_msp.c ****     /* TIM10 interrupt Init */
 1920              		.loc 1 749 5 view .LVU566
 1921              	.LBB35:
 749:Core/Src/stm32f4xx_hal_msp.c ****     /* TIM10 interrupt Init */
 1922              		.loc 1 749 5 view .LVU567
 1923 0052 0021     		movs	r1, #0
 1924 0054 0391     		str	r1, [sp, #12]
 749:Core/Src/stm32f4xx_hal_msp.c ****     /* TIM10 interrupt Init */
 1925              		.loc 1 749 5 view .LVU568
 1926 0056 0C4B     		ldr	r3, .L89+12
 1927 0058 5A6C     		ldr	r2, [r3, #68]
 1928 005a 42F40032 		orr	r2, r2, #131072
 1929 005e 5A64     		str	r2, [r3, #68]
 749:Core/Src/stm32f4xx_hal_msp.c ****     /* TIM10 interrupt Init */
 1930              		.loc 1 749 5 view .LVU569
 1931 0060 5B6C     		ldr	r3, [r3, #68]
 1932 0062 03F40033 		and	r3, r3, #131072
 1933 0066 0393     		str	r3, [sp, #12]
 749:Core/Src/stm32f4xx_hal_msp.c ****     /* TIM10 interrupt Init */
 1934              		.loc 1 749 5 view .LVU570
 1935 0068 039B     		ldr	r3, [sp, #12]
 1936              	.LBE35:
 749:Core/Src/stm32f4xx_hal_msp.c ****     /* TIM10 interrupt Init */
 1937              		.loc 1 749 5 view .LVU571
 751:Core/Src/stm32f4xx_hal_msp.c ****     HAL_NVIC_EnableIRQ(TIM1_UP_TIM10_IRQn);
 1938              		.loc 1 751 5 view .LVU572
 1939 006a 0A46     		mov	r2, r1
 1940 006c 1920     		movs	r0, #25
 1941              	.LVL100:
 751:Core/Src/stm32f4xx_hal_msp.c ****     HAL_NVIC_EnableIRQ(TIM1_UP_TIM10_IRQn);
 1942              		.loc 1 751 5 is_stmt 0 view .LVU573
 1943 006e FFF7FEFF 		bl	HAL_NVIC_SetPriority
 1944              	.LVL101:
 752:Core/Src/stm32f4xx_hal_msp.c ****   /* USER CODE BEGIN TIM10_MspInit 1 */
 1945              		.loc 1 752 5 is_stmt 1 view .LVU574
ARM GAS  /tmp/ccvhwIcY.s 			page 56


 1946 0072 1920     		movs	r0, #25
 1947 0074 FFF7FEFF 		bl	HAL_NVIC_EnableIRQ
 1948              	.LVL102:
 1949              		.loc 1 758 1 is_stmt 0 view .LVU575
 1950 0078 CEE7     		b	.L81
 1951              	.L90:
 1952 007a 00BF     		.align	2
 1953              	.L89:
 1954 007c 000C0040 		.word	1073744896
 1955 0080 00400140 		.word	1073823744
 1956 0084 00440140 		.word	1073824768
 1957 0088 00380240 		.word	1073887232
 1958              		.cfi_endproc
 1959              	.LFE141:
 1961              		.section	.text.HAL_TIM_Base_MspDeInit,"ax",%progbits
 1962              		.align	1
 1963              		.global	HAL_TIM_Base_MspDeInit
 1964              		.syntax unified
 1965              		.thumb
 1966              		.thumb_func
 1967              		.fpu fpv4-sp-d16
 1969              	HAL_TIM_Base_MspDeInit:
 1970              	.LVL103:
 1971              	.LFB142:
 759:Core/Src/stm32f4xx_hal_msp.c **** 
 760:Core/Src/stm32f4xx_hal_msp.c **** /**
 761:Core/Src/stm32f4xx_hal_msp.c **** * @brief TIM_Base MSP De-Initialization
 762:Core/Src/stm32f4xx_hal_msp.c **** * This function freeze the hardware resources used in this example
 763:Core/Src/stm32f4xx_hal_msp.c **** * @param htim_base: TIM_Base handle pointer
 764:Core/Src/stm32f4xx_hal_msp.c **** * @retval None
 765:Core/Src/stm32f4xx_hal_msp.c **** */
 766:Core/Src/stm32f4xx_hal_msp.c **** void HAL_TIM_Base_MspDeInit(TIM_HandleTypeDef* htim_base)
 767:Core/Src/stm32f4xx_hal_msp.c **** {
 1972              		.loc 1 767 1 is_stmt 1 view -0
 1973              		.cfi_startproc
 1974              		@ args = 0, pretend = 0, frame = 0
 1975              		@ frame_needed = 0, uses_anonymous_args = 0
 1976              		.loc 1 767 1 is_stmt 0 view .LVU577
 1977 0000 08B5     		push	{r3, lr}
 1978              	.LCFI31:
 1979              		.cfi_def_cfa_offset 8
 1980              		.cfi_offset 3, -8
 1981              		.cfi_offset 14, -4
 768:Core/Src/stm32f4xx_hal_msp.c ****   if(htim_base->Instance==TIM5)
 1982              		.loc 1 768 3 is_stmt 1 view .LVU578
 1983              		.loc 1 768 15 is_stmt 0 view .LVU579
 1984 0002 0368     		ldr	r3, [r0]
 1985              		.loc 1 768 5 view .LVU580
 1986 0004 104A     		ldr	r2, .L99
 1987 0006 9342     		cmp	r3, r2
 1988 0008 06D0     		beq	.L96
 769:Core/Src/stm32f4xx_hal_msp.c ****   {
 770:Core/Src/stm32f4xx_hal_msp.c ****   /* USER CODE BEGIN TIM5_MspDeInit 0 */
 771:Core/Src/stm32f4xx_hal_msp.c **** 
 772:Core/Src/stm32f4xx_hal_msp.c ****   /* USER CODE END TIM5_MspDeInit 0 */
 773:Core/Src/stm32f4xx_hal_msp.c ****     /* Peripheral clock disable */
 774:Core/Src/stm32f4xx_hal_msp.c ****     __HAL_RCC_TIM5_CLK_DISABLE();
ARM GAS  /tmp/ccvhwIcY.s 			page 57


 775:Core/Src/stm32f4xx_hal_msp.c ****   /* USER CODE BEGIN TIM5_MspDeInit 1 */
 776:Core/Src/stm32f4xx_hal_msp.c **** 
 777:Core/Src/stm32f4xx_hal_msp.c ****   /* USER CODE END TIM5_MspDeInit 1 */
 778:Core/Src/stm32f4xx_hal_msp.c ****   }
 779:Core/Src/stm32f4xx_hal_msp.c ****   else if(htim_base->Instance==TIM9)
 1989              		.loc 1 779 8 is_stmt 1 view .LVU581
 1990              		.loc 1 779 10 is_stmt 0 view .LVU582
 1991 000a 104A     		ldr	r2, .L99+4
 1992 000c 9342     		cmp	r3, r2
 1993 000e 0AD0     		beq	.L97
 780:Core/Src/stm32f4xx_hal_msp.c ****   {
 781:Core/Src/stm32f4xx_hal_msp.c ****   /* USER CODE BEGIN TIM9_MspDeInit 0 */
 782:Core/Src/stm32f4xx_hal_msp.c **** 
 783:Core/Src/stm32f4xx_hal_msp.c ****   /* USER CODE END TIM9_MspDeInit 0 */
 784:Core/Src/stm32f4xx_hal_msp.c ****     /* Peripheral clock disable */
 785:Core/Src/stm32f4xx_hal_msp.c ****     __HAL_RCC_TIM9_CLK_DISABLE();
 786:Core/Src/stm32f4xx_hal_msp.c ****   /* USER CODE BEGIN TIM9_MspDeInit 1 */
 787:Core/Src/stm32f4xx_hal_msp.c **** 
 788:Core/Src/stm32f4xx_hal_msp.c ****   /* USER CODE END TIM9_MspDeInit 1 */
 789:Core/Src/stm32f4xx_hal_msp.c ****   }
 790:Core/Src/stm32f4xx_hal_msp.c ****   else if(htim_base->Instance==TIM10)
 1994              		.loc 1 790 8 is_stmt 1 view .LVU583
 1995              		.loc 1 790 10 is_stmt 0 view .LVU584
 1996 0010 0F4A     		ldr	r2, .L99+8
 1997 0012 9342     		cmp	r3, r2
 1998 0014 0ED0     		beq	.L98
 1999              	.LVL104:
 2000              	.L91:
 791:Core/Src/stm32f4xx_hal_msp.c ****   {
 792:Core/Src/stm32f4xx_hal_msp.c ****   /* USER CODE BEGIN TIM10_MspDeInit 0 */
 793:Core/Src/stm32f4xx_hal_msp.c **** 
 794:Core/Src/stm32f4xx_hal_msp.c ****   /* USER CODE END TIM10_MspDeInit 0 */
 795:Core/Src/stm32f4xx_hal_msp.c ****     /* Peripheral clock disable */
 796:Core/Src/stm32f4xx_hal_msp.c ****     __HAL_RCC_TIM10_CLK_DISABLE();
 797:Core/Src/stm32f4xx_hal_msp.c **** 
 798:Core/Src/stm32f4xx_hal_msp.c ****     /* TIM10 interrupt DeInit */
 799:Core/Src/stm32f4xx_hal_msp.c ****     HAL_NVIC_DisableIRQ(TIM1_UP_TIM10_IRQn);
 800:Core/Src/stm32f4xx_hal_msp.c ****   /* USER CODE BEGIN TIM10_MspDeInit 1 */
 801:Core/Src/stm32f4xx_hal_msp.c **** 
 802:Core/Src/stm32f4xx_hal_msp.c ****   /* USER CODE END TIM10_MspDeInit 1 */
 803:Core/Src/stm32f4xx_hal_msp.c ****   }
 804:Core/Src/stm32f4xx_hal_msp.c **** 
 805:Core/Src/stm32f4xx_hal_msp.c **** }
 2001              		.loc 1 805 1 view .LVU585
 2002 0016 08BD     		pop	{r3, pc}
 2003              	.LVL105:
 2004              	.L96:
 774:Core/Src/stm32f4xx_hal_msp.c ****   /* USER CODE BEGIN TIM5_MspDeInit 1 */
 2005              		.loc 1 774 5 is_stmt 1 view .LVU586
 2006 0018 02F50B32 		add	r2, r2, #142336
 2007 001c 136C     		ldr	r3, [r2, #64]
 2008 001e 23F00803 		bic	r3, r3, #8
 2009 0022 1364     		str	r3, [r2, #64]
 2010 0024 F7E7     		b	.L91
 2011              	.L97:
 785:Core/Src/stm32f4xx_hal_msp.c ****   /* USER CODE BEGIN TIM9_MspDeInit 1 */
 2012              		.loc 1 785 5 view .LVU587
ARM GAS  /tmp/ccvhwIcY.s 			page 58


 2013 0026 02F57842 		add	r2, r2, #63488
 2014 002a 536C     		ldr	r3, [r2, #68]
 2015 002c 23F48033 		bic	r3, r3, #65536
 2016 0030 5364     		str	r3, [r2, #68]
 2017 0032 F0E7     		b	.L91
 2018              	.L98:
 796:Core/Src/stm32f4xx_hal_msp.c **** 
 2019              		.loc 1 796 5 view .LVU588
 2020 0034 02F57442 		add	r2, r2, #62464
 2021 0038 536C     		ldr	r3, [r2, #68]
 2022 003a 23F40033 		bic	r3, r3, #131072
 2023 003e 5364     		str	r3, [r2, #68]
 799:Core/Src/stm32f4xx_hal_msp.c ****   /* USER CODE BEGIN TIM10_MspDeInit 1 */
 2024              		.loc 1 799 5 view .LVU589
 2025 0040 1920     		movs	r0, #25
 2026              	.LVL106:
 799:Core/Src/stm32f4xx_hal_msp.c ****   /* USER CODE BEGIN TIM10_MspDeInit 1 */
 2027              		.loc 1 799 5 is_stmt 0 view .LVU590
 2028 0042 FFF7FEFF 		bl	HAL_NVIC_DisableIRQ
 2029              	.LVL107:
 2030              		.loc 1 805 1 view .LVU591
 2031 0046 E6E7     		b	.L91
 2032              	.L100:
 2033              		.align	2
 2034              	.L99:
 2035 0048 000C0040 		.word	1073744896
 2036 004c 00400140 		.word	1073823744
 2037 0050 00440140 		.word	1073824768
 2038              		.cfi_endproc
 2039              	.LFE142:
 2041              		.section	.text.HAL_UART_MspInit,"ax",%progbits
 2042              		.align	1
 2043              		.global	HAL_UART_MspInit
 2044              		.syntax unified
 2045              		.thumb
 2046              		.thumb_func
 2047              		.fpu fpv4-sp-d16
 2049              	HAL_UART_MspInit:
 2050              	.LVL108:
 2051              	.LFB143:
 806:Core/Src/stm32f4xx_hal_msp.c **** 
 807:Core/Src/stm32f4xx_hal_msp.c **** /**
 808:Core/Src/stm32f4xx_hal_msp.c **** * @brief UART MSP Initialization
 809:Core/Src/stm32f4xx_hal_msp.c **** * This function configures the hardware resources used in this example
 810:Core/Src/stm32f4xx_hal_msp.c **** * @param huart: UART handle pointer
 811:Core/Src/stm32f4xx_hal_msp.c **** * @retval None
 812:Core/Src/stm32f4xx_hal_msp.c **** */
 813:Core/Src/stm32f4xx_hal_msp.c **** void HAL_UART_MspInit(UART_HandleTypeDef* huart)
 814:Core/Src/stm32f4xx_hal_msp.c **** {
 2052              		.loc 1 814 1 is_stmt 1 view -0
 2053              		.cfi_startproc
 2054              		@ args = 0, pretend = 0, frame = 48
 2055              		@ frame_needed = 0, uses_anonymous_args = 0
 2056              		.loc 1 814 1 is_stmt 0 view .LVU593
 2057 0000 00B5     		push	{lr}
 2058              	.LCFI32:
 2059              		.cfi_def_cfa_offset 4
ARM GAS  /tmp/ccvhwIcY.s 			page 59


 2060              		.cfi_offset 14, -4
 2061 0002 8DB0     		sub	sp, sp, #52
 2062              	.LCFI33:
 2063              		.cfi_def_cfa_offset 56
 815:Core/Src/stm32f4xx_hal_msp.c ****   GPIO_InitTypeDef GPIO_InitStruct = {0};
 2064              		.loc 1 815 3 is_stmt 1 view .LVU594
 2065              		.loc 1 815 20 is_stmt 0 view .LVU595
 2066 0004 0023     		movs	r3, #0
 2067 0006 0793     		str	r3, [sp, #28]
 2068 0008 0893     		str	r3, [sp, #32]
 2069 000a 0993     		str	r3, [sp, #36]
 2070 000c 0A93     		str	r3, [sp, #40]
 2071 000e 0B93     		str	r3, [sp, #44]
 816:Core/Src/stm32f4xx_hal_msp.c ****   if(huart->Instance==USART1)
 2072              		.loc 1 816 3 is_stmt 1 view .LVU596
 2073              		.loc 1 816 11 is_stmt 0 view .LVU597
 2074 0010 0368     		ldr	r3, [r0]
 2075              		.loc 1 816 5 view .LVU598
 2076 0012 3C4A     		ldr	r2, .L109
 2077 0014 9342     		cmp	r3, r2
 2078 0016 08D0     		beq	.L106
 817:Core/Src/stm32f4xx_hal_msp.c ****   {
 818:Core/Src/stm32f4xx_hal_msp.c ****   /* USER CODE BEGIN USART1_MspInit 0 */
 819:Core/Src/stm32f4xx_hal_msp.c **** 
 820:Core/Src/stm32f4xx_hal_msp.c ****   /* USER CODE END USART1_MspInit 0 */
 821:Core/Src/stm32f4xx_hal_msp.c ****     /* Peripheral clock enable */
 822:Core/Src/stm32f4xx_hal_msp.c ****     __HAL_RCC_USART1_CLK_ENABLE();
 823:Core/Src/stm32f4xx_hal_msp.c **** 
 824:Core/Src/stm32f4xx_hal_msp.c ****     __HAL_RCC_GPIOA_CLK_ENABLE();
 825:Core/Src/stm32f4xx_hal_msp.c ****     /**USART1 GPIO Configuration
 826:Core/Src/stm32f4xx_hal_msp.c ****     PA9     ------> USART1_TX
 827:Core/Src/stm32f4xx_hal_msp.c ****     PA10     ------> USART1_RX
 828:Core/Src/stm32f4xx_hal_msp.c ****     */
 829:Core/Src/stm32f4xx_hal_msp.c ****     GPIO_InitStruct.Pin = GPIO_PIN_9|GPIO_PIN_10;
 830:Core/Src/stm32f4xx_hal_msp.c ****     GPIO_InitStruct.Mode = GPIO_MODE_AF_PP;
 831:Core/Src/stm32f4xx_hal_msp.c ****     GPIO_InitStruct.Pull = GPIO_NOPULL;
 832:Core/Src/stm32f4xx_hal_msp.c ****     GPIO_InitStruct.Speed = GPIO_SPEED_FREQ_VERY_HIGH;
 833:Core/Src/stm32f4xx_hal_msp.c ****     GPIO_InitStruct.Alternate = GPIO_AF7_USART1;
 834:Core/Src/stm32f4xx_hal_msp.c ****     HAL_GPIO_Init(GPIOA, &GPIO_InitStruct);
 835:Core/Src/stm32f4xx_hal_msp.c **** 
 836:Core/Src/stm32f4xx_hal_msp.c ****   /* USER CODE BEGIN USART1_MspInit 1 */
 837:Core/Src/stm32f4xx_hal_msp.c **** 
 838:Core/Src/stm32f4xx_hal_msp.c ****   /* USER CODE END USART1_MspInit 1 */
 839:Core/Src/stm32f4xx_hal_msp.c ****   }
 840:Core/Src/stm32f4xx_hal_msp.c ****   else if(huart->Instance==USART2)
 2079              		.loc 1 840 8 is_stmt 1 view .LVU599
 2080              		.loc 1 840 10 is_stmt 0 view .LVU600
 2081 0018 3B4A     		ldr	r2, .L109+4
 2082 001a 9342     		cmp	r3, r2
 2083 001c 2AD0     		beq	.L107
 841:Core/Src/stm32f4xx_hal_msp.c ****   {
 842:Core/Src/stm32f4xx_hal_msp.c ****   /* USER CODE BEGIN USART2_MspInit 0 */
 843:Core/Src/stm32f4xx_hal_msp.c **** 
 844:Core/Src/stm32f4xx_hal_msp.c ****   /* USER CODE END USART2_MspInit 0 */
 845:Core/Src/stm32f4xx_hal_msp.c ****     /* Peripheral clock enable */
 846:Core/Src/stm32f4xx_hal_msp.c ****     __HAL_RCC_USART2_CLK_ENABLE();
 847:Core/Src/stm32f4xx_hal_msp.c **** 
ARM GAS  /tmp/ccvhwIcY.s 			page 60


 848:Core/Src/stm32f4xx_hal_msp.c ****     __HAL_RCC_GPIOA_CLK_ENABLE();
 849:Core/Src/stm32f4xx_hal_msp.c ****     /**USART2 GPIO Configuration
 850:Core/Src/stm32f4xx_hal_msp.c ****     PA2     ------> USART2_TX
 851:Core/Src/stm32f4xx_hal_msp.c ****     PA3     ------> USART2_RX
 852:Core/Src/stm32f4xx_hal_msp.c ****     */
 853:Core/Src/stm32f4xx_hal_msp.c ****     GPIO_InitStruct.Pin = GPIO_PIN_2|GPIO_PIN_3;
 854:Core/Src/stm32f4xx_hal_msp.c ****     GPIO_InitStruct.Mode = GPIO_MODE_AF_PP;
 855:Core/Src/stm32f4xx_hal_msp.c ****     GPIO_InitStruct.Pull = GPIO_NOPULL;
 856:Core/Src/stm32f4xx_hal_msp.c ****     GPIO_InitStruct.Speed = GPIO_SPEED_FREQ_VERY_HIGH;
 857:Core/Src/stm32f4xx_hal_msp.c ****     GPIO_InitStruct.Alternate = GPIO_AF7_USART2;
 858:Core/Src/stm32f4xx_hal_msp.c ****     HAL_GPIO_Init(GPIOA, &GPIO_InitStruct);
 859:Core/Src/stm32f4xx_hal_msp.c **** 
 860:Core/Src/stm32f4xx_hal_msp.c ****   /* USER CODE BEGIN USART2_MspInit 1 */
 861:Core/Src/stm32f4xx_hal_msp.c **** 
 862:Core/Src/stm32f4xx_hal_msp.c ****   /* USER CODE END USART2_MspInit 1 */
 863:Core/Src/stm32f4xx_hal_msp.c ****   }
 864:Core/Src/stm32f4xx_hal_msp.c ****   else if(huart->Instance==USART6)
 2084              		.loc 1 864 8 is_stmt 1 view .LVU601
 2085              		.loc 1 864 10 is_stmt 0 view .LVU602
 2086 001e 3B4A     		ldr	r2, .L109+8
 2087 0020 9342     		cmp	r3, r2
 2088 0022 4BD0     		beq	.L108
 2089              	.LVL109:
 2090              	.L101:
 865:Core/Src/stm32f4xx_hal_msp.c ****   {
 866:Core/Src/stm32f4xx_hal_msp.c ****   /* USER CODE BEGIN USART6_MspInit 0 */
 867:Core/Src/stm32f4xx_hal_msp.c **** 
 868:Core/Src/stm32f4xx_hal_msp.c ****   /* USER CODE END USART6_MspInit 0 */
 869:Core/Src/stm32f4xx_hal_msp.c ****     /* Peripheral clock enable */
 870:Core/Src/stm32f4xx_hal_msp.c ****     __HAL_RCC_USART6_CLK_ENABLE();
 871:Core/Src/stm32f4xx_hal_msp.c **** 
 872:Core/Src/stm32f4xx_hal_msp.c ****     __HAL_RCC_GPIOC_CLK_ENABLE();
 873:Core/Src/stm32f4xx_hal_msp.c ****     /**USART6 GPIO Configuration
 874:Core/Src/stm32f4xx_hal_msp.c ****     PC6     ------> USART6_TX
 875:Core/Src/stm32f4xx_hal_msp.c ****     PC7     ------> USART6_RX
 876:Core/Src/stm32f4xx_hal_msp.c ****     */
 877:Core/Src/stm32f4xx_hal_msp.c ****     GPIO_InitStruct.Pin = GPIO_PIN_6|GPIO_PIN_7;
 878:Core/Src/stm32f4xx_hal_msp.c ****     GPIO_InitStruct.Mode = GPIO_MODE_AF_PP;
 879:Core/Src/stm32f4xx_hal_msp.c ****     GPIO_InitStruct.Pull = GPIO_NOPULL;
 880:Core/Src/stm32f4xx_hal_msp.c ****     GPIO_InitStruct.Speed = GPIO_SPEED_FREQ_VERY_HIGH;
 881:Core/Src/stm32f4xx_hal_msp.c ****     GPIO_InitStruct.Alternate = GPIO_AF8_USART6;
 882:Core/Src/stm32f4xx_hal_msp.c ****     HAL_GPIO_Init(GPIOC, &GPIO_InitStruct);
 883:Core/Src/stm32f4xx_hal_msp.c **** 
 884:Core/Src/stm32f4xx_hal_msp.c ****   /* USER CODE BEGIN USART6_MspInit 1 */
 885:Core/Src/stm32f4xx_hal_msp.c **** 
 886:Core/Src/stm32f4xx_hal_msp.c ****   /* USER CODE END USART6_MspInit 1 */
 887:Core/Src/stm32f4xx_hal_msp.c ****   }
 888:Core/Src/stm32f4xx_hal_msp.c **** 
 889:Core/Src/stm32f4xx_hal_msp.c **** }
 2091              		.loc 1 889 1 view .LVU603
 2092 0024 0DB0     		add	sp, sp, #52
 2093              	.LCFI34:
 2094              		.cfi_remember_state
 2095              		.cfi_def_cfa_offset 4
 2096              		@ sp needed
 2097 0026 5DF804FB 		ldr	pc, [sp], #4
 2098              	.LVL110:
ARM GAS  /tmp/ccvhwIcY.s 			page 61


 2099              	.L106:
 2100              	.LCFI35:
 2101              		.cfi_restore_state
 822:Core/Src/stm32f4xx_hal_msp.c **** 
 2102              		.loc 1 822 5 is_stmt 1 view .LVU604
 2103              	.LBB36:
 822:Core/Src/stm32f4xx_hal_msp.c **** 
 2104              		.loc 1 822 5 view .LVU605
 2105 002a 0022     		movs	r2, #0
 2106 002c 0192     		str	r2, [sp, #4]
 822:Core/Src/stm32f4xx_hal_msp.c **** 
 2107              		.loc 1 822 5 view .LVU606
 2108 002e 384B     		ldr	r3, .L109+12
 2109 0030 596C     		ldr	r1, [r3, #68]
 2110 0032 41F01001 		orr	r1, r1, #16
 2111 0036 5964     		str	r1, [r3, #68]
 822:Core/Src/stm32f4xx_hal_msp.c **** 
 2112              		.loc 1 822 5 view .LVU607
 2113 0038 596C     		ldr	r1, [r3, #68]
 2114 003a 01F01001 		and	r1, r1, #16
 2115 003e 0191     		str	r1, [sp, #4]
 822:Core/Src/stm32f4xx_hal_msp.c **** 
 2116              		.loc 1 822 5 view .LVU608
 2117 0040 0199     		ldr	r1, [sp, #4]
 2118              	.LBE36:
 822:Core/Src/stm32f4xx_hal_msp.c **** 
 2119              		.loc 1 822 5 view .LVU609
 824:Core/Src/stm32f4xx_hal_msp.c ****     /**USART1 GPIO Configuration
 2120              		.loc 1 824 5 view .LVU610
 2121              	.LBB37:
 824:Core/Src/stm32f4xx_hal_msp.c ****     /**USART1 GPIO Configuration
 2122              		.loc 1 824 5 view .LVU611
 2123 0042 0292     		str	r2, [sp, #8]
 824:Core/Src/stm32f4xx_hal_msp.c ****     /**USART1 GPIO Configuration
 2124              		.loc 1 824 5 view .LVU612
 2125 0044 196B     		ldr	r1, [r3, #48]
 2126 0046 41F00101 		orr	r1, r1, #1
 2127 004a 1963     		str	r1, [r3, #48]
 824:Core/Src/stm32f4xx_hal_msp.c ****     /**USART1 GPIO Configuration
 2128              		.loc 1 824 5 view .LVU613
 2129 004c 1B6B     		ldr	r3, [r3, #48]
 2130 004e 03F00103 		and	r3, r3, #1
 2131 0052 0293     		str	r3, [sp, #8]
 824:Core/Src/stm32f4xx_hal_msp.c ****     /**USART1 GPIO Configuration
 2132              		.loc 1 824 5 view .LVU614
 2133 0054 029B     		ldr	r3, [sp, #8]
 2134              	.LBE37:
 824:Core/Src/stm32f4xx_hal_msp.c ****     /**USART1 GPIO Configuration
 2135              		.loc 1 824 5 view .LVU615
 829:Core/Src/stm32f4xx_hal_msp.c ****     GPIO_InitStruct.Mode = GPIO_MODE_AF_PP;
 2136              		.loc 1 829 5 view .LVU616
 829:Core/Src/stm32f4xx_hal_msp.c ****     GPIO_InitStruct.Mode = GPIO_MODE_AF_PP;
 2137              		.loc 1 829 25 is_stmt 0 view .LVU617
 2138 0056 4FF4C063 		mov	r3, #1536
 2139 005a 0793     		str	r3, [sp, #28]
 830:Core/Src/stm32f4xx_hal_msp.c ****     GPIO_InitStruct.Pull = GPIO_NOPULL;
 2140              		.loc 1 830 5 is_stmt 1 view .LVU618
ARM GAS  /tmp/ccvhwIcY.s 			page 62


 830:Core/Src/stm32f4xx_hal_msp.c ****     GPIO_InitStruct.Pull = GPIO_NOPULL;
 2141              		.loc 1 830 26 is_stmt 0 view .LVU619
 2142 005c 0223     		movs	r3, #2
 2143 005e 0893     		str	r3, [sp, #32]
 831:Core/Src/stm32f4xx_hal_msp.c ****     GPIO_InitStruct.Speed = GPIO_SPEED_FREQ_VERY_HIGH;
 2144              		.loc 1 831 5 is_stmt 1 view .LVU620
 831:Core/Src/stm32f4xx_hal_msp.c ****     GPIO_InitStruct.Speed = GPIO_SPEED_FREQ_VERY_HIGH;
 2145              		.loc 1 831 26 is_stmt 0 view .LVU621
 2146 0060 0992     		str	r2, [sp, #36]
 832:Core/Src/stm32f4xx_hal_msp.c ****     GPIO_InitStruct.Alternate = GPIO_AF7_USART1;
 2147              		.loc 1 832 5 is_stmt 1 view .LVU622
 832:Core/Src/stm32f4xx_hal_msp.c ****     GPIO_InitStruct.Alternate = GPIO_AF7_USART1;
 2148              		.loc 1 832 27 is_stmt 0 view .LVU623
 2149 0062 0323     		movs	r3, #3
 2150 0064 0A93     		str	r3, [sp, #40]
 833:Core/Src/stm32f4xx_hal_msp.c ****     HAL_GPIO_Init(GPIOA, &GPIO_InitStruct);
 2151              		.loc 1 833 5 is_stmt 1 view .LVU624
 833:Core/Src/stm32f4xx_hal_msp.c ****     HAL_GPIO_Init(GPIOA, &GPIO_InitStruct);
 2152              		.loc 1 833 31 is_stmt 0 view .LVU625
 2153 0066 0723     		movs	r3, #7
 2154 0068 0B93     		str	r3, [sp, #44]
 834:Core/Src/stm32f4xx_hal_msp.c **** 
 2155              		.loc 1 834 5 is_stmt 1 view .LVU626
 2156 006a 07A9     		add	r1, sp, #28
 2157 006c 2948     		ldr	r0, .L109+16
 2158              	.LVL111:
 834:Core/Src/stm32f4xx_hal_msp.c **** 
 2159              		.loc 1 834 5 is_stmt 0 view .LVU627
 2160 006e FFF7FEFF 		bl	HAL_GPIO_Init
 2161              	.LVL112:
 2162 0072 D7E7     		b	.L101
 2163              	.LVL113:
 2164              	.L107:
 846:Core/Src/stm32f4xx_hal_msp.c **** 
 2165              		.loc 1 846 5 is_stmt 1 view .LVU628
 2166              	.LBB38:
 846:Core/Src/stm32f4xx_hal_msp.c **** 
 2167              		.loc 1 846 5 view .LVU629
 2168 0074 0022     		movs	r2, #0
 2169 0076 0392     		str	r2, [sp, #12]
 846:Core/Src/stm32f4xx_hal_msp.c **** 
 2170              		.loc 1 846 5 view .LVU630
 2171 0078 254B     		ldr	r3, .L109+12
 2172 007a 196C     		ldr	r1, [r3, #64]
 2173 007c 41F40031 		orr	r1, r1, #131072
 2174 0080 1964     		str	r1, [r3, #64]
 846:Core/Src/stm32f4xx_hal_msp.c **** 
 2175              		.loc 1 846 5 view .LVU631
 2176 0082 196C     		ldr	r1, [r3, #64]
 2177 0084 01F40031 		and	r1, r1, #131072
 2178 0088 0391     		str	r1, [sp, #12]
 846:Core/Src/stm32f4xx_hal_msp.c **** 
 2179              		.loc 1 846 5 view .LVU632
 2180 008a 0399     		ldr	r1, [sp, #12]
 2181              	.LBE38:
 846:Core/Src/stm32f4xx_hal_msp.c **** 
 2182              		.loc 1 846 5 view .LVU633
ARM GAS  /tmp/ccvhwIcY.s 			page 63


 848:Core/Src/stm32f4xx_hal_msp.c ****     /**USART2 GPIO Configuration
 2183              		.loc 1 848 5 view .LVU634
 2184              	.LBB39:
 848:Core/Src/stm32f4xx_hal_msp.c ****     /**USART2 GPIO Configuration
 2185              		.loc 1 848 5 view .LVU635
 2186 008c 0492     		str	r2, [sp, #16]
 848:Core/Src/stm32f4xx_hal_msp.c ****     /**USART2 GPIO Configuration
 2187              		.loc 1 848 5 view .LVU636
 2188 008e 196B     		ldr	r1, [r3, #48]
 2189 0090 41F00101 		orr	r1, r1, #1
 2190 0094 1963     		str	r1, [r3, #48]
 848:Core/Src/stm32f4xx_hal_msp.c ****     /**USART2 GPIO Configuration
 2191              		.loc 1 848 5 view .LVU637
 2192 0096 1B6B     		ldr	r3, [r3, #48]
 2193 0098 03F00103 		and	r3, r3, #1
 2194 009c 0493     		str	r3, [sp, #16]
 848:Core/Src/stm32f4xx_hal_msp.c ****     /**USART2 GPIO Configuration
 2195              		.loc 1 848 5 view .LVU638
 2196 009e 049B     		ldr	r3, [sp, #16]
 2197              	.LBE39:
 848:Core/Src/stm32f4xx_hal_msp.c ****     /**USART2 GPIO Configuration
 2198              		.loc 1 848 5 view .LVU639
 853:Core/Src/stm32f4xx_hal_msp.c ****     GPIO_InitStruct.Mode = GPIO_MODE_AF_PP;
 2199              		.loc 1 853 5 view .LVU640
 853:Core/Src/stm32f4xx_hal_msp.c ****     GPIO_InitStruct.Mode = GPIO_MODE_AF_PP;
 2200              		.loc 1 853 25 is_stmt 0 view .LVU641
 2201 00a0 0C23     		movs	r3, #12
 2202 00a2 0793     		str	r3, [sp, #28]
 854:Core/Src/stm32f4xx_hal_msp.c ****     GPIO_InitStruct.Pull = GPIO_NOPULL;
 2203              		.loc 1 854 5 is_stmt 1 view .LVU642
 854:Core/Src/stm32f4xx_hal_msp.c ****     GPIO_InitStruct.Pull = GPIO_NOPULL;
 2204              		.loc 1 854 26 is_stmt 0 view .LVU643
 2205 00a4 0223     		movs	r3, #2
 2206 00a6 0893     		str	r3, [sp, #32]
 855:Core/Src/stm32f4xx_hal_msp.c ****     GPIO_InitStruct.Speed = GPIO_SPEED_FREQ_VERY_HIGH;
 2207              		.loc 1 855 5 is_stmt 1 view .LVU644
 855:Core/Src/stm32f4xx_hal_msp.c ****     GPIO_InitStruct.Speed = GPIO_SPEED_FREQ_VERY_HIGH;
 2208              		.loc 1 855 26 is_stmt 0 view .LVU645
 2209 00a8 0992     		str	r2, [sp, #36]
 856:Core/Src/stm32f4xx_hal_msp.c ****     GPIO_InitStruct.Alternate = GPIO_AF7_USART2;
 2210              		.loc 1 856 5 is_stmt 1 view .LVU646
 856:Core/Src/stm32f4xx_hal_msp.c ****     GPIO_InitStruct.Alternate = GPIO_AF7_USART2;
 2211              		.loc 1 856 27 is_stmt 0 view .LVU647
 2212 00aa 0323     		movs	r3, #3
 2213 00ac 0A93     		str	r3, [sp, #40]
 857:Core/Src/stm32f4xx_hal_msp.c ****     HAL_GPIO_Init(GPIOA, &GPIO_InitStruct);
 2214              		.loc 1 857 5 is_stmt 1 view .LVU648
 857:Core/Src/stm32f4xx_hal_msp.c ****     HAL_GPIO_Init(GPIOA, &GPIO_InitStruct);
 2215              		.loc 1 857 31 is_stmt 0 view .LVU649
 2216 00ae 0723     		movs	r3, #7
 2217 00b0 0B93     		str	r3, [sp, #44]
 858:Core/Src/stm32f4xx_hal_msp.c **** 
 2218              		.loc 1 858 5 is_stmt 1 view .LVU650
 2219 00b2 07A9     		add	r1, sp, #28
 2220 00b4 1748     		ldr	r0, .L109+16
 2221              	.LVL114:
 858:Core/Src/stm32f4xx_hal_msp.c **** 
ARM GAS  /tmp/ccvhwIcY.s 			page 64


 2222              		.loc 1 858 5 is_stmt 0 view .LVU651
 2223 00b6 FFF7FEFF 		bl	HAL_GPIO_Init
 2224              	.LVL115:
 2225 00ba B3E7     		b	.L101
 2226              	.LVL116:
 2227              	.L108:
 870:Core/Src/stm32f4xx_hal_msp.c **** 
 2228              		.loc 1 870 5 is_stmt 1 view .LVU652
 2229              	.LBB40:
 870:Core/Src/stm32f4xx_hal_msp.c **** 
 2230              		.loc 1 870 5 view .LVU653
 2231 00bc 0022     		movs	r2, #0
 2232 00be 0592     		str	r2, [sp, #20]
 870:Core/Src/stm32f4xx_hal_msp.c **** 
 2233              		.loc 1 870 5 view .LVU654
 2234 00c0 134B     		ldr	r3, .L109+12
 2235 00c2 596C     		ldr	r1, [r3, #68]
 2236 00c4 41F02001 		orr	r1, r1, #32
 2237 00c8 5964     		str	r1, [r3, #68]
 870:Core/Src/stm32f4xx_hal_msp.c **** 
 2238              		.loc 1 870 5 view .LVU655
 2239 00ca 596C     		ldr	r1, [r3, #68]
 2240 00cc 01F02001 		and	r1, r1, #32
 2241 00d0 0591     		str	r1, [sp, #20]
 870:Core/Src/stm32f4xx_hal_msp.c **** 
 2242              		.loc 1 870 5 view .LVU656
 2243 00d2 0599     		ldr	r1, [sp, #20]
 2244              	.LBE40:
 870:Core/Src/stm32f4xx_hal_msp.c **** 
 2245              		.loc 1 870 5 view .LVU657
 872:Core/Src/stm32f4xx_hal_msp.c ****     /**USART6 GPIO Configuration
 2246              		.loc 1 872 5 view .LVU658
 2247              	.LBB41:
 872:Core/Src/stm32f4xx_hal_msp.c ****     /**USART6 GPIO Configuration
 2248              		.loc 1 872 5 view .LVU659
 2249 00d4 0692     		str	r2, [sp, #24]
 872:Core/Src/stm32f4xx_hal_msp.c ****     /**USART6 GPIO Configuration
 2250              		.loc 1 872 5 view .LVU660
 2251 00d6 196B     		ldr	r1, [r3, #48]
 2252 00d8 41F00401 		orr	r1, r1, #4
 2253 00dc 1963     		str	r1, [r3, #48]
 872:Core/Src/stm32f4xx_hal_msp.c ****     /**USART6 GPIO Configuration
 2254              		.loc 1 872 5 view .LVU661
 2255 00de 1B6B     		ldr	r3, [r3, #48]
 2256 00e0 03F00403 		and	r3, r3, #4
 2257 00e4 0693     		str	r3, [sp, #24]
 872:Core/Src/stm32f4xx_hal_msp.c ****     /**USART6 GPIO Configuration
 2258              		.loc 1 872 5 view .LVU662
 2259 00e6 069B     		ldr	r3, [sp, #24]
 2260              	.LBE41:
 872:Core/Src/stm32f4xx_hal_msp.c ****     /**USART6 GPIO Configuration
 2261              		.loc 1 872 5 view .LVU663
 877:Core/Src/stm32f4xx_hal_msp.c ****     GPIO_InitStruct.Mode = GPIO_MODE_AF_PP;
 2262              		.loc 1 877 5 view .LVU664
 877:Core/Src/stm32f4xx_hal_msp.c ****     GPIO_InitStruct.Mode = GPIO_MODE_AF_PP;
 2263              		.loc 1 877 25 is_stmt 0 view .LVU665
 2264 00e8 C023     		movs	r3, #192
ARM GAS  /tmp/ccvhwIcY.s 			page 65


 2265 00ea 0793     		str	r3, [sp, #28]
 878:Core/Src/stm32f4xx_hal_msp.c ****     GPIO_InitStruct.Pull = GPIO_NOPULL;
 2266              		.loc 1 878 5 is_stmt 1 view .LVU666
 878:Core/Src/stm32f4xx_hal_msp.c ****     GPIO_InitStruct.Pull = GPIO_NOPULL;
 2267              		.loc 1 878 26 is_stmt 0 view .LVU667
 2268 00ec 0223     		movs	r3, #2
 2269 00ee 0893     		str	r3, [sp, #32]
 879:Core/Src/stm32f4xx_hal_msp.c ****     GPIO_InitStruct.Speed = GPIO_SPEED_FREQ_VERY_HIGH;
 2270              		.loc 1 879 5 is_stmt 1 view .LVU668
 879:Core/Src/stm32f4xx_hal_msp.c ****     GPIO_InitStruct.Speed = GPIO_SPEED_FREQ_VERY_HIGH;
 2271              		.loc 1 879 26 is_stmt 0 view .LVU669
 2272 00f0 0992     		str	r2, [sp, #36]
 880:Core/Src/stm32f4xx_hal_msp.c ****     GPIO_InitStruct.Alternate = GPIO_AF8_USART6;
 2273              		.loc 1 880 5 is_stmt 1 view .LVU670
 880:Core/Src/stm32f4xx_hal_msp.c ****     GPIO_InitStruct.Alternate = GPIO_AF8_USART6;
 2274              		.loc 1 880 27 is_stmt 0 view .LVU671
 2275 00f2 0323     		movs	r3, #3
 2276 00f4 0A93     		str	r3, [sp, #40]
 881:Core/Src/stm32f4xx_hal_msp.c ****     HAL_GPIO_Init(GPIOC, &GPIO_InitStruct);
 2277              		.loc 1 881 5 is_stmt 1 view .LVU672
 881:Core/Src/stm32f4xx_hal_msp.c ****     HAL_GPIO_Init(GPIOC, &GPIO_InitStruct);
 2278              		.loc 1 881 31 is_stmt 0 view .LVU673
 2279 00f6 0823     		movs	r3, #8
 2280 00f8 0B93     		str	r3, [sp, #44]
 882:Core/Src/stm32f4xx_hal_msp.c **** 
 2281              		.loc 1 882 5 is_stmt 1 view .LVU674
 2282 00fa 07A9     		add	r1, sp, #28
 2283 00fc 0648     		ldr	r0, .L109+20
 2284              	.LVL117:
 882:Core/Src/stm32f4xx_hal_msp.c **** 
 2285              		.loc 1 882 5 is_stmt 0 view .LVU675
 2286 00fe FFF7FEFF 		bl	HAL_GPIO_Init
 2287              	.LVL118:
 2288              		.loc 1 889 1 view .LVU676
 2289 0102 8FE7     		b	.L101
 2290              	.L110:
 2291              		.align	2
 2292              	.L109:
 2293 0104 00100140 		.word	1073811456
 2294 0108 00440040 		.word	1073759232
 2295 010c 00140140 		.word	1073812480
 2296 0110 00380240 		.word	1073887232
 2297 0114 00000240 		.word	1073872896
 2298 0118 00080240 		.word	1073874944
 2299              		.cfi_endproc
 2300              	.LFE143:
 2302              		.section	.text.HAL_UART_MspDeInit,"ax",%progbits
 2303              		.align	1
 2304              		.global	HAL_UART_MspDeInit
 2305              		.syntax unified
 2306              		.thumb
 2307              		.thumb_func
 2308              		.fpu fpv4-sp-d16
 2310              	HAL_UART_MspDeInit:
 2311              	.LVL119:
 2312              	.LFB144:
 890:Core/Src/stm32f4xx_hal_msp.c **** 
ARM GAS  /tmp/ccvhwIcY.s 			page 66


 891:Core/Src/stm32f4xx_hal_msp.c **** /**
 892:Core/Src/stm32f4xx_hal_msp.c **** * @brief UART MSP De-Initialization
 893:Core/Src/stm32f4xx_hal_msp.c **** * This function freeze the hardware resources used in this example
 894:Core/Src/stm32f4xx_hal_msp.c **** * @param huart: UART handle pointer
 895:Core/Src/stm32f4xx_hal_msp.c **** * @retval None
 896:Core/Src/stm32f4xx_hal_msp.c **** */
 897:Core/Src/stm32f4xx_hal_msp.c **** void HAL_UART_MspDeInit(UART_HandleTypeDef* huart)
 898:Core/Src/stm32f4xx_hal_msp.c **** {
 2313              		.loc 1 898 1 is_stmt 1 view -0
 2314              		.cfi_startproc
 2315              		@ args = 0, pretend = 0, frame = 0
 2316              		@ frame_needed = 0, uses_anonymous_args = 0
 2317              		.loc 1 898 1 is_stmt 0 view .LVU678
 2318 0000 08B5     		push	{r3, lr}
 2319              	.LCFI36:
 2320              		.cfi_def_cfa_offset 8
 2321              		.cfi_offset 3, -8
 2322              		.cfi_offset 14, -4
 899:Core/Src/stm32f4xx_hal_msp.c ****   if(huart->Instance==USART1)
 2323              		.loc 1 899 3 is_stmt 1 view .LVU679
 2324              		.loc 1 899 11 is_stmt 0 view .LVU680
 2325 0002 0368     		ldr	r3, [r0]
 2326              		.loc 1 899 5 view .LVU681
 2327 0004 154A     		ldr	r2, .L119
 2328 0006 9342     		cmp	r3, r2
 2329 0008 06D0     		beq	.L116
 900:Core/Src/stm32f4xx_hal_msp.c ****   {
 901:Core/Src/stm32f4xx_hal_msp.c ****   /* USER CODE BEGIN USART1_MspDeInit 0 */
 902:Core/Src/stm32f4xx_hal_msp.c **** 
 903:Core/Src/stm32f4xx_hal_msp.c ****   /* USER CODE END USART1_MspDeInit 0 */
 904:Core/Src/stm32f4xx_hal_msp.c ****     /* Peripheral clock disable */
 905:Core/Src/stm32f4xx_hal_msp.c ****     __HAL_RCC_USART1_CLK_DISABLE();
 906:Core/Src/stm32f4xx_hal_msp.c **** 
 907:Core/Src/stm32f4xx_hal_msp.c ****     /**USART1 GPIO Configuration
 908:Core/Src/stm32f4xx_hal_msp.c ****     PA9     ------> USART1_TX
 909:Core/Src/stm32f4xx_hal_msp.c ****     PA10     ------> USART1_RX
 910:Core/Src/stm32f4xx_hal_msp.c ****     */
 911:Core/Src/stm32f4xx_hal_msp.c ****     HAL_GPIO_DeInit(GPIOA, GPIO_PIN_9|GPIO_PIN_10);
 912:Core/Src/stm32f4xx_hal_msp.c **** 
 913:Core/Src/stm32f4xx_hal_msp.c ****   /* USER CODE BEGIN USART1_MspDeInit 1 */
 914:Core/Src/stm32f4xx_hal_msp.c **** 
 915:Core/Src/stm32f4xx_hal_msp.c ****   /* USER CODE END USART1_MspDeInit 1 */
 916:Core/Src/stm32f4xx_hal_msp.c ****   }
 917:Core/Src/stm32f4xx_hal_msp.c ****   else if(huart->Instance==USART2)
 2330              		.loc 1 917 8 is_stmt 1 view .LVU682
 2331              		.loc 1 917 10 is_stmt 0 view .LVU683
 2332 000a 154A     		ldr	r2, .L119+4
 2333 000c 9342     		cmp	r3, r2
 2334 000e 0FD0     		beq	.L117
 918:Core/Src/stm32f4xx_hal_msp.c ****   {
 919:Core/Src/stm32f4xx_hal_msp.c ****   /* USER CODE BEGIN USART2_MspDeInit 0 */
 920:Core/Src/stm32f4xx_hal_msp.c **** 
 921:Core/Src/stm32f4xx_hal_msp.c ****   /* USER CODE END USART2_MspDeInit 0 */
 922:Core/Src/stm32f4xx_hal_msp.c ****     /* Peripheral clock disable */
 923:Core/Src/stm32f4xx_hal_msp.c ****     __HAL_RCC_USART2_CLK_DISABLE();
 924:Core/Src/stm32f4xx_hal_msp.c **** 
 925:Core/Src/stm32f4xx_hal_msp.c ****     /**USART2 GPIO Configuration
ARM GAS  /tmp/ccvhwIcY.s 			page 67


 926:Core/Src/stm32f4xx_hal_msp.c ****     PA2     ------> USART2_TX
 927:Core/Src/stm32f4xx_hal_msp.c ****     PA3     ------> USART2_RX
 928:Core/Src/stm32f4xx_hal_msp.c ****     */
 929:Core/Src/stm32f4xx_hal_msp.c ****     HAL_GPIO_DeInit(GPIOA, GPIO_PIN_2|GPIO_PIN_3);
 930:Core/Src/stm32f4xx_hal_msp.c **** 
 931:Core/Src/stm32f4xx_hal_msp.c ****   /* USER CODE BEGIN USART2_MspDeInit 1 */
 932:Core/Src/stm32f4xx_hal_msp.c **** 
 933:Core/Src/stm32f4xx_hal_msp.c ****   /* USER CODE END USART2_MspDeInit 1 */
 934:Core/Src/stm32f4xx_hal_msp.c ****   }
 935:Core/Src/stm32f4xx_hal_msp.c ****   else if(huart->Instance==USART6)
 2335              		.loc 1 935 8 is_stmt 1 view .LVU684
 2336              		.loc 1 935 10 is_stmt 0 view .LVU685
 2337 0010 144A     		ldr	r2, .L119+8
 2338 0012 9342     		cmp	r3, r2
 2339 0014 17D0     		beq	.L118
 2340              	.LVL120:
 2341              	.L111:
 936:Core/Src/stm32f4xx_hal_msp.c ****   {
 937:Core/Src/stm32f4xx_hal_msp.c ****   /* USER CODE BEGIN USART6_MspDeInit 0 */
 938:Core/Src/stm32f4xx_hal_msp.c **** 
 939:Core/Src/stm32f4xx_hal_msp.c ****   /* USER CODE END USART6_MspDeInit 0 */
 940:Core/Src/stm32f4xx_hal_msp.c ****     /* Peripheral clock disable */
 941:Core/Src/stm32f4xx_hal_msp.c ****     __HAL_RCC_USART6_CLK_DISABLE();
 942:Core/Src/stm32f4xx_hal_msp.c **** 
 943:Core/Src/stm32f4xx_hal_msp.c ****     /**USART6 GPIO Configuration
 944:Core/Src/stm32f4xx_hal_msp.c ****     PC6     ------> USART6_TX
 945:Core/Src/stm32f4xx_hal_msp.c ****     PC7     ------> USART6_RX
 946:Core/Src/stm32f4xx_hal_msp.c ****     */
 947:Core/Src/stm32f4xx_hal_msp.c ****     HAL_GPIO_DeInit(GPIOC, GPIO_PIN_6|GPIO_PIN_7);
 948:Core/Src/stm32f4xx_hal_msp.c **** 
 949:Core/Src/stm32f4xx_hal_msp.c ****   /* USER CODE BEGIN USART6_MspDeInit 1 */
 950:Core/Src/stm32f4xx_hal_msp.c **** 
 951:Core/Src/stm32f4xx_hal_msp.c ****   /* USER CODE END USART6_MspDeInit 1 */
 952:Core/Src/stm32f4xx_hal_msp.c ****   }
 953:Core/Src/stm32f4xx_hal_msp.c **** 
 954:Core/Src/stm32f4xx_hal_msp.c **** }
 2342              		.loc 1 954 1 view .LVU686
 2343 0016 08BD     		pop	{r3, pc}
 2344              	.LVL121:
 2345              	.L116:
 905:Core/Src/stm32f4xx_hal_msp.c **** 
 2346              		.loc 1 905 5 is_stmt 1 view .LVU687
 2347 0018 02F59432 		add	r2, r2, #75776
 2348 001c 536C     		ldr	r3, [r2, #68]
 2349 001e 23F01003 		bic	r3, r3, #16
 2350 0022 5364     		str	r3, [r2, #68]
 911:Core/Src/stm32f4xx_hal_msp.c **** 
 2351              		.loc 1 911 5 view .LVU688
 2352 0024 4FF4C061 		mov	r1, #1536
 2353 0028 0F48     		ldr	r0, .L119+12
 2354              	.LVL122:
 911:Core/Src/stm32f4xx_hal_msp.c **** 
 2355              		.loc 1 911 5 is_stmt 0 view .LVU689
 2356 002a FFF7FEFF 		bl	HAL_GPIO_DeInit
 2357              	.LVL123:
 2358 002e F2E7     		b	.L111
 2359              	.LVL124:
ARM GAS  /tmp/ccvhwIcY.s 			page 68


 2360              	.L117:
 923:Core/Src/stm32f4xx_hal_msp.c **** 
 2361              		.loc 1 923 5 is_stmt 1 view .LVU690
 2362 0030 02F5FA32 		add	r2, r2, #128000
 2363 0034 136C     		ldr	r3, [r2, #64]
 2364 0036 23F40033 		bic	r3, r3, #131072
 2365 003a 1364     		str	r3, [r2, #64]
 929:Core/Src/stm32f4xx_hal_msp.c **** 
 2366              		.loc 1 929 5 view .LVU691
 2367 003c 0C21     		movs	r1, #12
 2368 003e 0A48     		ldr	r0, .L119+12
 2369              	.LVL125:
 929:Core/Src/stm32f4xx_hal_msp.c **** 
 2370              		.loc 1 929 5 is_stmt 0 view .LVU692
 2371 0040 FFF7FEFF 		bl	HAL_GPIO_DeInit
 2372              	.LVL126:
 2373 0044 E7E7     		b	.L111
 2374              	.LVL127:
 2375              	.L118:
 941:Core/Src/stm32f4xx_hal_msp.c **** 
 2376              		.loc 1 941 5 is_stmt 1 view .LVU693
 2377 0046 02F59232 		add	r2, r2, #74752
 2378 004a 536C     		ldr	r3, [r2, #68]
 2379 004c 23F02003 		bic	r3, r3, #32
 2380 0050 5364     		str	r3, [r2, #68]
 947:Core/Src/stm32f4xx_hal_msp.c **** 
 2381              		.loc 1 947 5 view .LVU694
 2382 0052 C021     		movs	r1, #192
 2383 0054 0548     		ldr	r0, .L119+16
 2384              	.LVL128:
 947:Core/Src/stm32f4xx_hal_msp.c **** 
 2385              		.loc 1 947 5 is_stmt 0 view .LVU695
 2386 0056 FFF7FEFF 		bl	HAL_GPIO_DeInit
 2387              	.LVL129:
 2388              		.loc 1 954 1 view .LVU696
 2389 005a DCE7     		b	.L111
 2390              	.L120:
 2391              		.align	2
 2392              	.L119:
 2393 005c 00100140 		.word	1073811456
 2394 0060 00440040 		.word	1073759232
 2395 0064 00140140 		.word	1073812480
 2396 0068 00000240 		.word	1073872896
 2397 006c 00080240 		.word	1073874944
 2398              		.cfi_endproc
 2399              	.LFE144:
 2401              		.section	.text.HAL_PCD_MspInit,"ax",%progbits
 2402              		.align	1
 2403              		.global	HAL_PCD_MspInit
 2404              		.syntax unified
 2405              		.thumb
 2406              		.thumb_func
 2407              		.fpu fpv4-sp-d16
 2409              	HAL_PCD_MspInit:
 2410              	.LVL130:
 2411              	.LFB145:
 955:Core/Src/stm32f4xx_hal_msp.c **** 
ARM GAS  /tmp/ccvhwIcY.s 			page 69


 956:Core/Src/stm32f4xx_hal_msp.c **** /**
 957:Core/Src/stm32f4xx_hal_msp.c **** * @brief PCD MSP Initialization
 958:Core/Src/stm32f4xx_hal_msp.c **** * This function configures the hardware resources used in this example
 959:Core/Src/stm32f4xx_hal_msp.c **** * @param hpcd: PCD handle pointer
 960:Core/Src/stm32f4xx_hal_msp.c **** * @retval None
 961:Core/Src/stm32f4xx_hal_msp.c **** */
 962:Core/Src/stm32f4xx_hal_msp.c **** void HAL_PCD_MspInit(PCD_HandleTypeDef* hpcd)
 963:Core/Src/stm32f4xx_hal_msp.c **** {
 2412              		.loc 1 963 1 is_stmt 1 view -0
 2413              		.cfi_startproc
 2414              		@ args = 0, pretend = 0, frame = 32
 2415              		@ frame_needed = 0, uses_anonymous_args = 0
 2416              		.loc 1 963 1 is_stmt 0 view .LVU698
 2417 0000 30B5     		push	{r4, r5, lr}
 2418              	.LCFI37:
 2419              		.cfi_def_cfa_offset 12
 2420              		.cfi_offset 4, -12
 2421              		.cfi_offset 5, -8
 2422              		.cfi_offset 14, -4
 2423 0002 89B0     		sub	sp, sp, #36
 2424              	.LCFI38:
 2425              		.cfi_def_cfa_offset 48
 964:Core/Src/stm32f4xx_hal_msp.c ****   GPIO_InitTypeDef GPIO_InitStruct = {0};
 2426              		.loc 1 964 3 is_stmt 1 view .LVU699
 2427              		.loc 1 964 20 is_stmt 0 view .LVU700
 2428 0004 0023     		movs	r3, #0
 2429 0006 0393     		str	r3, [sp, #12]
 2430 0008 0493     		str	r3, [sp, #16]
 2431 000a 0593     		str	r3, [sp, #20]
 2432 000c 0693     		str	r3, [sp, #24]
 2433 000e 0793     		str	r3, [sp, #28]
 965:Core/Src/stm32f4xx_hal_msp.c ****   if(hpcd->Instance==USB_OTG_FS)
 2434              		.loc 1 965 3 is_stmt 1 view .LVU701
 2435              		.loc 1 965 10 is_stmt 0 view .LVU702
 2436 0010 0368     		ldr	r3, [r0]
 2437              		.loc 1 965 5 view .LVU703
 2438 0012 B3F1A04F 		cmp	r3, #1342177280
 2439 0016 01D0     		beq	.L124
 2440              	.LVL131:
 2441              	.L121:
 966:Core/Src/stm32f4xx_hal_msp.c ****   {
 967:Core/Src/stm32f4xx_hal_msp.c ****   /* USER CODE BEGIN USB_OTG_FS_MspInit 0 */
 968:Core/Src/stm32f4xx_hal_msp.c **** 
 969:Core/Src/stm32f4xx_hal_msp.c ****   /* USER CODE END USB_OTG_FS_MspInit 0 */
 970:Core/Src/stm32f4xx_hal_msp.c **** 
 971:Core/Src/stm32f4xx_hal_msp.c ****     __HAL_RCC_GPIOA_CLK_ENABLE();
 972:Core/Src/stm32f4xx_hal_msp.c ****     /**USB_OTG_FS GPIO Configuration
 973:Core/Src/stm32f4xx_hal_msp.c ****     PA11     ------> USB_OTG_FS_DM
 974:Core/Src/stm32f4xx_hal_msp.c ****     PA12     ------> USB_OTG_FS_DP
 975:Core/Src/stm32f4xx_hal_msp.c ****     */
 976:Core/Src/stm32f4xx_hal_msp.c ****     GPIO_InitStruct.Pin = GPIO_PIN_11|GPIO_PIN_12;
 977:Core/Src/stm32f4xx_hal_msp.c ****     GPIO_InitStruct.Mode = GPIO_MODE_AF_PP;
 978:Core/Src/stm32f4xx_hal_msp.c ****     GPIO_InitStruct.Pull = GPIO_NOPULL;
 979:Core/Src/stm32f4xx_hal_msp.c ****     GPIO_InitStruct.Speed = GPIO_SPEED_FREQ_VERY_HIGH;
 980:Core/Src/stm32f4xx_hal_msp.c ****     GPIO_InitStruct.Alternate = GPIO_AF10_OTG_FS;
 981:Core/Src/stm32f4xx_hal_msp.c ****     HAL_GPIO_Init(GPIOA, &GPIO_InitStruct);
 982:Core/Src/stm32f4xx_hal_msp.c **** 
ARM GAS  /tmp/ccvhwIcY.s 			page 70


 983:Core/Src/stm32f4xx_hal_msp.c ****     /* Peripheral clock enable */
 984:Core/Src/stm32f4xx_hal_msp.c ****     __HAL_RCC_USB_OTG_FS_CLK_ENABLE();
 985:Core/Src/stm32f4xx_hal_msp.c ****   /* USER CODE BEGIN USB_OTG_FS_MspInit 1 */
 986:Core/Src/stm32f4xx_hal_msp.c **** 
 987:Core/Src/stm32f4xx_hal_msp.c ****   /* USER CODE END USB_OTG_FS_MspInit 1 */
 988:Core/Src/stm32f4xx_hal_msp.c ****   }
 989:Core/Src/stm32f4xx_hal_msp.c **** 
 990:Core/Src/stm32f4xx_hal_msp.c **** }
 2442              		.loc 1 990 1 view .LVU704
 2443 0018 09B0     		add	sp, sp, #36
 2444              	.LCFI39:
 2445              		.cfi_remember_state
 2446              		.cfi_def_cfa_offset 12
 2447              		@ sp needed
 2448 001a 30BD     		pop	{r4, r5, pc}
 2449              	.LVL132:
 2450              	.L124:
 2451              	.LCFI40:
 2452              		.cfi_restore_state
 971:Core/Src/stm32f4xx_hal_msp.c ****     /**USB_OTG_FS GPIO Configuration
 2453              		.loc 1 971 5 is_stmt 1 view .LVU705
 2454              	.LBB42:
 971:Core/Src/stm32f4xx_hal_msp.c ****     /**USB_OTG_FS GPIO Configuration
 2455              		.loc 1 971 5 view .LVU706
 2456 001c 0025     		movs	r5, #0
 2457 001e 0195     		str	r5, [sp, #4]
 971:Core/Src/stm32f4xx_hal_msp.c ****     /**USB_OTG_FS GPIO Configuration
 2458              		.loc 1 971 5 view .LVU707
 2459 0020 134C     		ldr	r4, .L125
 2460 0022 236B     		ldr	r3, [r4, #48]
 2461 0024 43F00103 		orr	r3, r3, #1
 2462 0028 2363     		str	r3, [r4, #48]
 971:Core/Src/stm32f4xx_hal_msp.c ****     /**USB_OTG_FS GPIO Configuration
 2463              		.loc 1 971 5 view .LVU708
 2464 002a 236B     		ldr	r3, [r4, #48]
 2465 002c 03F00103 		and	r3, r3, #1
 2466 0030 0193     		str	r3, [sp, #4]
 971:Core/Src/stm32f4xx_hal_msp.c ****     /**USB_OTG_FS GPIO Configuration
 2467              		.loc 1 971 5 view .LVU709
 2468 0032 019B     		ldr	r3, [sp, #4]
 2469              	.LBE42:
 971:Core/Src/stm32f4xx_hal_msp.c ****     /**USB_OTG_FS GPIO Configuration
 2470              		.loc 1 971 5 view .LVU710
 976:Core/Src/stm32f4xx_hal_msp.c ****     GPIO_InitStruct.Mode = GPIO_MODE_AF_PP;
 2471              		.loc 1 976 5 view .LVU711
 976:Core/Src/stm32f4xx_hal_msp.c ****     GPIO_InitStruct.Mode = GPIO_MODE_AF_PP;
 2472              		.loc 1 976 25 is_stmt 0 view .LVU712
 2473 0034 4FF4C053 		mov	r3, #6144
 2474 0038 0393     		str	r3, [sp, #12]
 977:Core/Src/stm32f4xx_hal_msp.c ****     GPIO_InitStruct.Pull = GPIO_NOPULL;
 2475              		.loc 1 977 5 is_stmt 1 view .LVU713
 977:Core/Src/stm32f4xx_hal_msp.c ****     GPIO_InitStruct.Pull = GPIO_NOPULL;
 2476              		.loc 1 977 26 is_stmt 0 view .LVU714
 2477 003a 0223     		movs	r3, #2
 2478 003c 0493     		str	r3, [sp, #16]
 978:Core/Src/stm32f4xx_hal_msp.c ****     GPIO_InitStruct.Speed = GPIO_SPEED_FREQ_VERY_HIGH;
 2479              		.loc 1 978 5 is_stmt 1 view .LVU715
ARM GAS  /tmp/ccvhwIcY.s 			page 71


 978:Core/Src/stm32f4xx_hal_msp.c ****     GPIO_InitStruct.Speed = GPIO_SPEED_FREQ_VERY_HIGH;
 2480              		.loc 1 978 26 is_stmt 0 view .LVU716
 2481 003e 0595     		str	r5, [sp, #20]
 979:Core/Src/stm32f4xx_hal_msp.c ****     GPIO_InitStruct.Alternate = GPIO_AF10_OTG_FS;
 2482              		.loc 1 979 5 is_stmt 1 view .LVU717
 979:Core/Src/stm32f4xx_hal_msp.c ****     GPIO_InitStruct.Alternate = GPIO_AF10_OTG_FS;
 2483              		.loc 1 979 27 is_stmt 0 view .LVU718
 2484 0040 0323     		movs	r3, #3
 2485 0042 0693     		str	r3, [sp, #24]
 980:Core/Src/stm32f4xx_hal_msp.c ****     HAL_GPIO_Init(GPIOA, &GPIO_InitStruct);
 2486              		.loc 1 980 5 is_stmt 1 view .LVU719
 980:Core/Src/stm32f4xx_hal_msp.c ****     HAL_GPIO_Init(GPIOA, &GPIO_InitStruct);
 2487              		.loc 1 980 31 is_stmt 0 view .LVU720
 2488 0044 0A23     		movs	r3, #10
 2489 0046 0793     		str	r3, [sp, #28]
 981:Core/Src/stm32f4xx_hal_msp.c **** 
 2490              		.loc 1 981 5 is_stmt 1 view .LVU721
 2491 0048 03A9     		add	r1, sp, #12
 2492 004a 0A48     		ldr	r0, .L125+4
 2493              	.LVL133:
 981:Core/Src/stm32f4xx_hal_msp.c **** 
 2494              		.loc 1 981 5 is_stmt 0 view .LVU722
 2495 004c FFF7FEFF 		bl	HAL_GPIO_Init
 2496              	.LVL134:
 984:Core/Src/stm32f4xx_hal_msp.c ****   /* USER CODE BEGIN USB_OTG_FS_MspInit 1 */
 2497              		.loc 1 984 5 is_stmt 1 view .LVU723
 984:Core/Src/stm32f4xx_hal_msp.c ****   /* USER CODE BEGIN USB_OTG_FS_MspInit 1 */
 2498              		.loc 1 984 5 view .LVU724
 2499 0050 636B     		ldr	r3, [r4, #52]
 2500 0052 43F08003 		orr	r3, r3, #128
 2501 0056 6363     		str	r3, [r4, #52]
 984:Core/Src/stm32f4xx_hal_msp.c ****   /* USER CODE BEGIN USB_OTG_FS_MspInit 1 */
 2502              		.loc 1 984 5 view .LVU725
 2503              	.LBB43:
 984:Core/Src/stm32f4xx_hal_msp.c ****   /* USER CODE BEGIN USB_OTG_FS_MspInit 1 */
 2504              		.loc 1 984 5 view .LVU726
 2505 0058 0295     		str	r5, [sp, #8]
 984:Core/Src/stm32f4xx_hal_msp.c ****   /* USER CODE BEGIN USB_OTG_FS_MspInit 1 */
 2506              		.loc 1 984 5 view .LVU727
 2507 005a 636C     		ldr	r3, [r4, #68]
 2508 005c 43F48043 		orr	r3, r3, #16384
 2509 0060 6364     		str	r3, [r4, #68]
 984:Core/Src/stm32f4xx_hal_msp.c ****   /* USER CODE BEGIN USB_OTG_FS_MspInit 1 */
 2510              		.loc 1 984 5 view .LVU728
 2511 0062 636C     		ldr	r3, [r4, #68]
 2512 0064 03F48043 		and	r3, r3, #16384
 2513 0068 0293     		str	r3, [sp, #8]
 984:Core/Src/stm32f4xx_hal_msp.c ****   /* USER CODE BEGIN USB_OTG_FS_MspInit 1 */
 2514              		.loc 1 984 5 view .LVU729
 2515 006a 029B     		ldr	r3, [sp, #8]
 2516              	.LBE43:
 984:Core/Src/stm32f4xx_hal_msp.c ****   /* USER CODE BEGIN USB_OTG_FS_MspInit 1 */
 2517              		.loc 1 984 5 view .LVU730
 984:Core/Src/stm32f4xx_hal_msp.c ****   /* USER CODE BEGIN USB_OTG_FS_MspInit 1 */
 2518              		.loc 1 984 5 view .LVU731
 2519              		.loc 1 990 1 is_stmt 0 view .LVU732
 2520 006c D4E7     		b	.L121
ARM GAS  /tmp/ccvhwIcY.s 			page 72


 2521              	.L126:
 2522 006e 00BF     		.align	2
 2523              	.L125:
 2524 0070 00380240 		.word	1073887232
 2525 0074 00000240 		.word	1073872896
 2526              		.cfi_endproc
 2527              	.LFE145:
 2529              		.section	.text.HAL_PCD_MspDeInit,"ax",%progbits
 2530              		.align	1
 2531              		.global	HAL_PCD_MspDeInit
 2532              		.syntax unified
 2533              		.thumb
 2534              		.thumb_func
 2535              		.fpu fpv4-sp-d16
 2537              	HAL_PCD_MspDeInit:
 2538              	.LVL135:
 2539              	.LFB146:
 991:Core/Src/stm32f4xx_hal_msp.c **** 
 992:Core/Src/stm32f4xx_hal_msp.c **** /**
 993:Core/Src/stm32f4xx_hal_msp.c **** * @brief PCD MSP De-Initialization
 994:Core/Src/stm32f4xx_hal_msp.c **** * This function freeze the hardware resources used in this example
 995:Core/Src/stm32f4xx_hal_msp.c **** * @param hpcd: PCD handle pointer
 996:Core/Src/stm32f4xx_hal_msp.c **** * @retval None
 997:Core/Src/stm32f4xx_hal_msp.c **** */
 998:Core/Src/stm32f4xx_hal_msp.c **** void HAL_PCD_MspDeInit(PCD_HandleTypeDef* hpcd)
 999:Core/Src/stm32f4xx_hal_msp.c **** {
 2540              		.loc 1 999 1 is_stmt 1 view -0
 2541              		.cfi_startproc
 2542              		@ args = 0, pretend = 0, frame = 0
 2543              		@ frame_needed = 0, uses_anonymous_args = 0
 2544              		.loc 1 999 1 is_stmt 0 view .LVU734
 2545 0000 08B5     		push	{r3, lr}
 2546              	.LCFI41:
 2547              		.cfi_def_cfa_offset 8
 2548              		.cfi_offset 3, -8
 2549              		.cfi_offset 14, -4
1000:Core/Src/stm32f4xx_hal_msp.c ****   if(hpcd->Instance==USB_OTG_FS)
 2550              		.loc 1 1000 3 is_stmt 1 view .LVU735
 2551              		.loc 1 1000 10 is_stmt 0 view .LVU736
 2552 0002 0368     		ldr	r3, [r0]
 2553              		.loc 1 1000 5 view .LVU737
 2554 0004 B3F1A04F 		cmp	r3, #1342177280
 2555 0008 00D0     		beq	.L130
 2556              	.LVL136:
 2557              	.L127:
1001:Core/Src/stm32f4xx_hal_msp.c ****   {
1002:Core/Src/stm32f4xx_hal_msp.c ****   /* USER CODE BEGIN USB_OTG_FS_MspDeInit 0 */
1003:Core/Src/stm32f4xx_hal_msp.c **** 
1004:Core/Src/stm32f4xx_hal_msp.c ****   /* USER CODE END USB_OTG_FS_MspDeInit 0 */
1005:Core/Src/stm32f4xx_hal_msp.c ****     /* Peripheral clock disable */
1006:Core/Src/stm32f4xx_hal_msp.c ****     __HAL_RCC_USB_OTG_FS_CLK_DISABLE();
1007:Core/Src/stm32f4xx_hal_msp.c **** 
1008:Core/Src/stm32f4xx_hal_msp.c ****     /**USB_OTG_FS GPIO Configuration
1009:Core/Src/stm32f4xx_hal_msp.c ****     PA11     ------> USB_OTG_FS_DM
1010:Core/Src/stm32f4xx_hal_msp.c ****     PA12     ------> USB_OTG_FS_DP
1011:Core/Src/stm32f4xx_hal_msp.c ****     */
1012:Core/Src/stm32f4xx_hal_msp.c ****     HAL_GPIO_DeInit(GPIOA, GPIO_PIN_11|GPIO_PIN_12);
ARM GAS  /tmp/ccvhwIcY.s 			page 73


1013:Core/Src/stm32f4xx_hal_msp.c **** 
1014:Core/Src/stm32f4xx_hal_msp.c ****   /* USER CODE BEGIN USB_OTG_FS_MspDeInit 1 */
1015:Core/Src/stm32f4xx_hal_msp.c **** 
1016:Core/Src/stm32f4xx_hal_msp.c ****   /* USER CODE END USB_OTG_FS_MspDeInit 1 */
1017:Core/Src/stm32f4xx_hal_msp.c ****   }
1018:Core/Src/stm32f4xx_hal_msp.c **** 
1019:Core/Src/stm32f4xx_hal_msp.c **** }
 2558              		.loc 1 1019 1 view .LVU738
 2559 000a 08BD     		pop	{r3, pc}
 2560              	.LVL137:
 2561              	.L130:
1006:Core/Src/stm32f4xx_hal_msp.c **** 
 2562              		.loc 1 1006 5 is_stmt 1 view .LVU739
 2563 000c 054A     		ldr	r2, .L131
 2564 000e 536B     		ldr	r3, [r2, #52]
 2565 0010 23F08003 		bic	r3, r3, #128
 2566 0014 5363     		str	r3, [r2, #52]
1012:Core/Src/stm32f4xx_hal_msp.c **** 
 2567              		.loc 1 1012 5 view .LVU740
 2568 0016 4FF4C051 		mov	r1, #6144
 2569 001a 0348     		ldr	r0, .L131+4
 2570              	.LVL138:
1012:Core/Src/stm32f4xx_hal_msp.c **** 
 2571              		.loc 1 1012 5 is_stmt 0 view .LVU741
 2572 001c FFF7FEFF 		bl	HAL_GPIO_DeInit
 2573              	.LVL139:
 2574              		.loc 1 1019 1 view .LVU742
 2575 0020 F3E7     		b	.L127
 2576              	.L132:
 2577 0022 00BF     		.align	2
 2578              	.L131:
 2579 0024 00380240 		.word	1073887232
 2580 0028 00000240 		.word	1073872896
 2581              		.cfi_endproc
 2582              	.LFE146:
 2584              		.text
 2585              	.Letext0:
 2586              		.file 2 "/usr/lib/gcc/arm-none-eabi/9.2.1/include/stdint.h"
 2587              		.file 3 "Drivers/CMSIS/Include/core_cm4.h"
 2588              		.file 4 "Drivers/CMSIS/Device/ST/STM32F4xx/Include/system_stm32f4xx.h"
 2589              		.file 5 "Drivers/CMSIS/Device/ST/STM32F4xx/Include/stm32f411xe.h"
 2590              		.file 6 "Drivers/CMSIS/Device/ST/STM32F4xx/Include/stm32f4xx.h"
 2591              		.file 7 "Drivers/STM32F4xx_HAL_Driver/Inc/stm32f4xx_hal_def.h"
 2592              		.file 8 "Drivers/STM32F4xx_HAL_Driver/Inc/stm32f4xx_hal_gpio.h"
 2593              		.file 9 "Drivers/STM32F4xx_HAL_Driver/Inc/stm32f4xx_hal_dma.h"
 2594              		.file 10 "Drivers/STM32F4xx_HAL_Driver/Inc/stm32f4xx_hal_adc.h"
 2595              		.file 11 "Drivers/STM32F4xx_HAL_Driver/Inc/stm32f4xx_hal_i2c.h"
 2596              		.file 12 "Drivers/STM32F4xx_HAL_Driver/Inc/stm32f4xx_hal_i2s.h"
 2597              		.file 13 "Drivers/STM32F4xx_HAL_Driver/Inc/stm32f4xx_ll_sdmmc.h"
 2598              		.file 14 "Drivers/STM32F4xx_HAL_Driver/Inc/stm32f4xx_hal_sd.h"
 2599              		.file 15 "Drivers/STM32F4xx_HAL_Driver/Inc/stm32f4xx_hal_spi.h"
 2600              		.file 16 "Drivers/STM32F4xx_HAL_Driver/Inc/stm32f4xx_hal_tim.h"
 2601              		.file 17 "Drivers/STM32F4xx_HAL_Driver/Inc/stm32f4xx_hal_uart.h"
 2602              		.file 18 "Drivers/STM32F4xx_HAL_Driver/Inc/stm32f4xx_ll_usb.h"
 2603              		.file 19 "Drivers/STM32F4xx_HAL_Driver/Inc/stm32f4xx_hal_pcd.h"
 2604              		.file 20 "Drivers/STM32F4xx_HAL_Driver/Inc/stm32f4xx_hal.h"
 2605              		.file 21 "Drivers/STM32F4xx_HAL_Driver/Inc/stm32f4xx_hal_cortex.h"
ARM GAS  /tmp/ccvhwIcY.s 			page 74


ARM GAS  /tmp/ccvhwIcY.s 			page 75


DEFINED SYMBOLS
                            *ABS*:0000000000000000 stm32f4xx_hal_msp.c
     /tmp/ccvhwIcY.s:18     .text.HAL_MspInit:0000000000000000 $t
     /tmp/ccvhwIcY.s:26     .text.HAL_MspInit:0000000000000000 HAL_MspInit
     /tmp/ccvhwIcY.s:80     .text.HAL_MspInit:0000000000000034 $d
     /tmp/ccvhwIcY.s:85     .text.HAL_ADC_MspInit:0000000000000000 $t
     /tmp/ccvhwIcY.s:92     .text.HAL_ADC_MspInit:0000000000000000 HAL_ADC_MspInit
     /tmp/ccvhwIcY.s:226    .text.HAL_ADC_MspInit:0000000000000088 $d
     /tmp/ccvhwIcY.s:232    .text.HAL_ADC_MspDeInit:0000000000000000 $t
     /tmp/ccvhwIcY.s:239    .text.HAL_ADC_MspDeInit:0000000000000000 HAL_ADC_MspDeInit
     /tmp/ccvhwIcY.s:287    .text.HAL_ADC_MspDeInit:0000000000000028 $d
     /tmp/ccvhwIcY.s:295    .text.HAL_I2C_MspInit:0000000000000000 $t
     /tmp/ccvhwIcY.s:302    .text.HAL_I2C_MspInit:0000000000000000 HAL_I2C_MspInit
     /tmp/ccvhwIcY.s:523    .text.HAL_I2C_MspInit:00000000000000f0 $d
     /tmp/ccvhwIcY.s:532    .text.HAL_I2C_MspDeInit:0000000000000000 $t
     /tmp/ccvhwIcY.s:539    .text.HAL_I2C_MspDeInit:0000000000000000 HAL_I2C_MspDeInit
     /tmp/ccvhwIcY.s:613    .text.HAL_I2C_MspDeInit:0000000000000054 $d
     /tmp/ccvhwIcY.s:621    .text.HAL_I2S_MspInit:0000000000000000 $t
     /tmp/ccvhwIcY.s:628    .text.HAL_I2S_MspInit:0000000000000000 HAL_I2S_MspInit
     /tmp/ccvhwIcY.s:1059   .text.HAL_I2S_MspInit:00000000000001d0 $d
     /tmp/ccvhwIcY.s:1072   .text.HAL_I2S_MspDeInit:0000000000000000 $t
     /tmp/ccvhwIcY.s:1079   .text.HAL_I2S_MspDeInit:0000000000000000 HAL_I2S_MspDeInit
     /tmp/ccvhwIcY.s:1187   .text.HAL_I2S_MspDeInit:000000000000008c $d
     /tmp/ccvhwIcY.s:1199   .text.HAL_SD_MspInit:0000000000000000 $t
     /tmp/ccvhwIcY.s:1206   .text.HAL_SD_MspInit:0000000000000000 HAL_SD_MspInit
     /tmp/ccvhwIcY.s:1392   .text.HAL_SD_MspInit:00000000000000b8 $d
     /tmp/ccvhwIcY.s:1400   .text.HAL_SD_MspDeInit:0000000000000000 $t
     /tmp/ccvhwIcY.s:1407   .text.HAL_SD_MspDeInit:0000000000000000 HAL_SD_MspDeInit
     /tmp/ccvhwIcY.s:1460   .text.HAL_SD_MspDeInit:0000000000000034 $d
     /tmp/ccvhwIcY.s:1469   .text.HAL_SPI_MspInit:0000000000000000 $t
     /tmp/ccvhwIcY.s:1476   .text.HAL_SPI_MspInit:0000000000000000 HAL_SPI_MspInit
     /tmp/ccvhwIcY.s:1729   .text.HAL_SPI_MspInit:0000000000000104 $d
     /tmp/ccvhwIcY.s:1739   .text.HAL_SPI_MspDeInit:0000000000000000 $t
     /tmp/ccvhwIcY.s:1746   .text.HAL_SPI_MspDeInit:0000000000000000 HAL_SPI_MspDeInit
     /tmp/ccvhwIcY.s:1819   .text.HAL_SPI_MspDeInit:0000000000000050 $d
     /tmp/ccvhwIcY.s:1828   .text.HAL_TIM_Base_MspInit:0000000000000000 $t
     /tmp/ccvhwIcY.s:1835   .text.HAL_TIM_Base_MspInit:0000000000000000 HAL_TIM_Base_MspInit
     /tmp/ccvhwIcY.s:1954   .text.HAL_TIM_Base_MspInit:000000000000007c $d
     /tmp/ccvhwIcY.s:1962   .text.HAL_TIM_Base_MspDeInit:0000000000000000 $t
     /tmp/ccvhwIcY.s:1969   .text.HAL_TIM_Base_MspDeInit:0000000000000000 HAL_TIM_Base_MspDeInit
     /tmp/ccvhwIcY.s:2035   .text.HAL_TIM_Base_MspDeInit:0000000000000048 $d
     /tmp/ccvhwIcY.s:2042   .text.HAL_UART_MspInit:0000000000000000 $t
     /tmp/ccvhwIcY.s:2049   .text.HAL_UART_MspInit:0000000000000000 HAL_UART_MspInit
     /tmp/ccvhwIcY.s:2293   .text.HAL_UART_MspInit:0000000000000104 $d
     /tmp/ccvhwIcY.s:2303   .text.HAL_UART_MspDeInit:0000000000000000 $t
     /tmp/ccvhwIcY.s:2310   .text.HAL_UART_MspDeInit:0000000000000000 HAL_UART_MspDeInit
     /tmp/ccvhwIcY.s:2393   .text.HAL_UART_MspDeInit:000000000000005c $d
     /tmp/ccvhwIcY.s:2402   .text.HAL_PCD_MspInit:0000000000000000 $t
     /tmp/ccvhwIcY.s:2409   .text.HAL_PCD_MspInit:0000000000000000 HAL_PCD_MspInit
     /tmp/ccvhwIcY.s:2524   .text.HAL_PCD_MspInit:0000000000000070 $d
     /tmp/ccvhwIcY.s:2530   .text.HAL_PCD_MspDeInit:0000000000000000 $t
     /tmp/ccvhwIcY.s:2537   .text.HAL_PCD_MspDeInit:0000000000000000 HAL_PCD_MspDeInit
     /tmp/ccvhwIcY.s:2579   .text.HAL_PCD_MspDeInit:0000000000000024 $d

UNDEFINED SYMBOLS
HAL_GPIO_Init
HAL_GPIO_DeInit
ARM GAS  /tmp/ccvhwIcY.s 			page 76


HAL_NVIC_SetPriority
HAL_NVIC_EnableIRQ
HAL_NVIC_DisableIRQ
