ARM GAS  /tmp/ccR9t7Ar.s 			page 1


   1              		.cpu cortex-m4
   2              		.eabi_attribute 27, 1
   3              		.eabi_attribute 28, 1
   4              		.eabi_attribute 20, 1
   5              		.eabi_attribute 21, 1
   6              		.eabi_attribute 23, 3
   7              		.eabi_attribute 24, 1
   8              		.eabi_attribute 25, 1
   9              		.eabi_attribute 26, 1
  10              		.eabi_attribute 30, 1
  11              		.eabi_attribute 34, 1
  12              		.eabi_attribute 18, 4
  13              		.file	"trigger.cpp"
  14              		.text
  15              	.Ltext0:
  16              		.cfi_sections	.debug_frame
  17              		.section	.text._ZN7triggerC2EP12GPIO_TypeDefNS_9PinNumberENS_4PullE,"ax",%progbits
  18              		.align	1
  19              		.global	_ZN7triggerC2EP12GPIO_TypeDefNS_9PinNumberENS_4PullE
  20              		.arch armv7e-m
  21              		.syntax unified
  22              		.thumb
  23              		.thumb_func
  24              		.fpu fpv4-sp-d16
  26              	_ZN7triggerC2EP12GPIO_TypeDefNS_9PinNumberENS_4PullE:
  27              		.fnstart
  28              	.LVL0:
  29              	.LFB131:
  30              		.file 1 "Core/Src/trigger.cpp"
   1:Core/Src/trigger.cpp **** #include "trigger.hpp"
   2:Core/Src/trigger.cpp **** 
   3:Core/Src/trigger.cpp **** /*
   4:Core/Src/trigger.cpp ****     the function to turn off the trigger is 
   5:Core/Src/trigger.cpp ****     void HAL_GPIO_EXTI_IRQHandler(uint16_t GPIO_Pin)
   6:Core/Src/trigger.cpp ****     in main
   7:Core/Src/trigger.cpp ****     */
   8:Core/Src/trigger.cpp **** 
   9:Core/Src/trigger.cpp **** trigger::trigger(GPIO_TypeDef * gpiox_ ,PinNumber pinx_,Pull pull_)
  31              		.loc 1 9 1 view -0
  32              		.cfi_startproc
  33              		@ args = 0, pretend = 0, frame = 0
  34              		@ frame_needed = 0, uses_anonymous_args = 0
  35              		.loc 1 9 1 is_stmt 0 view .LVU1
  36 0000 70B5     		push	{r4, r5, r6, lr}
  37              		.save {r4, r5, r6, lr}
  38              	.LCFI0:
  39              		.cfi_def_cfa_offset 16
  40              		.cfi_offset 4, -16
  41              		.cfi_offset 5, -12
  42              		.cfi_offset 6, -8
  43              		.cfi_offset 14, -4
  44 0002 0446     		mov	r4, r0
  45 0004 0E46     		mov	r6, r1
  46 0006 1546     		mov	r5, r2
  47              	.LBB2:
  10:Core/Src/trigger.cpp **** {
  11:Core/Src/trigger.cpp **** 
ARM GAS  /tmp/ccR9t7Ar.s 			page 2


  12:Core/Src/trigger.cpp ****       /* EXTI interrupt init  on pin PB2 */
  13:Core/Src/trigger.cpp ****       /* These two lines are pin specific : TODO: find a way to make them general */
  14:Core/Src/trigger.cpp ****     HAL_NVIC_SetPriority(EXTI3_IRQn, 0, 0);
  48              		.loc 1 14 5 is_stmt 1 view .LVU2
  49              		.loc 1 14 25 is_stmt 0 view .LVU3
  50 0008 0022     		movs	r2, #0
  51              	.LVL1:
  52              		.loc 1 14 25 view .LVU4
  53 000a 1146     		mov	r1, r2
  54              	.LVL2:
  55              		.loc 1 14 25 view .LVU5
  56 000c 0920     		movs	r0, #9
  57              	.LVL3:
  58              		.loc 1 14 25 view .LVU6
  59 000e FFF7FEFF 		bl	HAL_NVIC_SetPriority
  60              	.LVL4:
  15:Core/Src/trigger.cpp ****     HAL_NVIC_EnableIRQ(EXTI3_IRQn);
  61              		.loc 1 15 5 is_stmt 1 view .LVU7
  62              		.loc 1 15 23 is_stmt 0 view .LVU8
  63 0012 0920     		movs	r0, #9
  64 0014 FFF7FEFF 		bl	HAL_NVIC_EnableIRQ
  65              	.LVL5:
  16:Core/Src/trigger.cpp **** 
  17:Core/Src/trigger.cpp ****     gpiox = gpiox_;
  66              		.loc 1 17 5 is_stmt 1 view .LVU9
  67              		.loc 1 17 11 is_stmt 0 view .LVU10
  68 0018 2660     		str	r6, [r4]
  18:Core/Src/trigger.cpp ****       /*Configure GPIO pin : x */
  19:Core/Src/trigger.cpp ****     GPIO_InitStruct.Pin = pinx_;
  69              		.loc 1 19 5 is_stmt 1 view .LVU11
  70              		.loc 1 19 25 is_stmt 0 view .LVU12
  71 001a 6560     		str	r5, [r4, #4]
  20:Core/Src/trigger.cpp ****     GPIO_InitStruct.Mode = GPIO_MODE_IT_RISING;
  72              		.loc 1 20 5 is_stmt 1 view .LVU13
  73              		.loc 1 20 26 is_stmt 0 view .LVU14
  74 001c 024B     		ldr	r3, .L3
  75 001e A360     		str	r3, [r4, #8]
  21:Core/Src/trigger.cpp ****     GPIO_InitStruct.Pull = GPIO_NOPULL;
  76              		.loc 1 21 5 is_stmt 1 view .LVU15
  77              		.loc 1 21 26 is_stmt 0 view .LVU16
  78 0020 0023     		movs	r3, #0
  79 0022 E360     		str	r3, [r4, #12]
  80              	.LBE2:
  22:Core/Src/trigger.cpp **** }
  81              		.loc 1 22 1 view .LVU17
  82 0024 2046     		mov	r0, r4
  83 0026 70BD     		pop	{r4, r5, r6, pc}
  84              	.LVL6:
  85              	.L4:
  86              		.loc 1 22 1 view .LVU18
  87              		.align	2
  88              	.L3:
  89 0028 00001110 		.word	269549568
  90              		.cfi_endproc
  91              	.LFE131:
  92              		.fnend
  94              		.global	_ZN7triggerC1EP12GPIO_TypeDefNS_9PinNumberENS_4PullE
ARM GAS  /tmp/ccR9t7Ar.s 			page 3


  95              		.thumb_set _ZN7triggerC1EP12GPIO_TypeDefNS_9PinNumberENS_4PullE,_ZN7triggerC2EP12GPIO_TypeDefNS_9P
  96              		.section	.text._ZN7trigger4InitEv,"ax",%progbits
  97              		.align	1
  98              		.global	_ZN7trigger4InitEv
  99              		.syntax unified
 100              		.thumb
 101              		.thumb_func
 102              		.fpu fpv4-sp-d16
 104              	_ZN7trigger4InitEv:
 105              		.fnstart
 106              	.LVL7:
 107              	.LFB133:
  23:Core/Src/trigger.cpp **** 
  24:Core/Src/trigger.cpp **** void trigger::Init()
  25:Core/Src/trigger.cpp **** {
 108              		.loc 1 25 1 is_stmt 1 view -0
 109              		.cfi_startproc
 110              		@ args = 0, pretend = 0, frame = 0
 111              		@ frame_needed = 0, uses_anonymous_args = 0
 112              		.loc 1 25 1 is_stmt 0 view .LVU20
 113 0000 08B5     		push	{r3, lr}
 114              		.save {r3, lr}
 115              	.LCFI1:
 116              		.cfi_def_cfa_offset 8
 117              		.cfi_offset 3, -8
 118              		.cfi_offset 14, -4
  26:Core/Src/trigger.cpp ****     HAL_GPIO_Init(gpiox, &GPIO_InitStruct);
 119              		.loc 1 26 5 is_stmt 1 view .LVU21
 120              		.loc 1 26 18 is_stmt 0 view .LVU22
 121 0002 0146     		mov	r1, r0
 122 0004 51F8040B 		ldr	r0, [r1], #4
 123              	.LVL8:
 124              		.loc 1 26 18 view .LVU23
 125 0008 FFF7FEFF 		bl	HAL_GPIO_Init
 126              	.LVL9:
  27:Core/Src/trigger.cpp **** }
 127              		.loc 1 27 1 view .LVU24
 128 000c 08BD     		pop	{r3, pc}
 129              		.cfi_endproc
 130              	.LFE133:
 131              		.fnend
 133              		.section	.text._ZN7trigger7SetEdgeEh,"ax",%progbits
 134              		.align	1
 135              		.global	_ZN7trigger7SetEdgeEh
 136              		.syntax unified
 137              		.thumb
 138              		.thumb_func
 139              		.fpu fpv4-sp-d16
 141              	_ZN7trigger7SetEdgeEh:
 142              		.fnstart
 143              	.LVL10:
 144              	.LFB134:
  28:Core/Src/trigger.cpp **** 
  29:Core/Src/trigger.cpp **** void trigger::SetEdge(uint8_t Rise)
  30:Core/Src/trigger.cpp **** {
 145              		.loc 1 30 1 is_stmt 1 view -0
 146              		.cfi_startproc
ARM GAS  /tmp/ccR9t7Ar.s 			page 4


 147              		@ args = 0, pretend = 0, frame = 0
 148              		@ frame_needed = 0, uses_anonymous_args = 0
 149              		@ link register save eliminated.
  31:Core/Src/trigger.cpp ****     gpiox->MODER = Rise;
 150              		.loc 1 31 5 view .LVU26
 151 0000 0368     		ldr	r3, [r0]
 152              		.loc 1 31 18 is_stmt 0 view .LVU27
 153 0002 1960     		str	r1, [r3]
  32:Core/Src/trigger.cpp **** }
 154              		.loc 1 32 1 view .LVU28
 155 0004 7047     		bx	lr
 156              		.cfi_endproc
 157              	.LFE134:
 158              		.cantunwind
 159              		.fnend
 161              		.section	.text._ZN7trigger7SetPullEh,"ax",%progbits
 162              		.align	1
 163              		.global	_ZN7trigger7SetPullEh
 164              		.syntax unified
 165              		.thumb
 166              		.thumb_func
 167              		.fpu fpv4-sp-d16
 169              	_ZN7trigger7SetPullEh:
 170              		.fnstart
 171              	.LVL11:
 172              	.LFB135:
  33:Core/Src/trigger.cpp **** 
  34:Core/Src/trigger.cpp **** void trigger::SetPull(uint8_t Pull)
  35:Core/Src/trigger.cpp **** {
 173              		.loc 1 35 1 is_stmt 1 view -0
 174              		.cfi_startproc
 175              		@ args = 0, pretend = 0, frame = 0
 176              		@ frame_needed = 0, uses_anonymous_args = 0
 177              		@ link register save eliminated.
  36:Core/Src/trigger.cpp ****     gpiox->PUPDR = Pull;
 178              		.loc 1 36 5 view .LVU30
 179 0000 0368     		ldr	r3, [r0]
 180              		.loc 1 36 18 is_stmt 0 view .LVU31
 181 0002 D960     		str	r1, [r3, #12]
  37:Core/Src/trigger.cpp **** }
 182              		.loc 1 37 1 view .LVU32
 183 0004 7047     		bx	lr
 184              		.cfi_endproc
 185              	.LFE135:
 186              		.cantunwind
 187              		.fnend
 189              		.text
 190              	.Letext0:
 191              		.file 2 "/usr/lib/gcc/arm-none-eabi/9.2.1/include/stdint.h"
 192              		.file 3 "Drivers/CMSIS/Include/core_cm4.h"
 193              		.file 4 "Drivers/CMSIS/Device/ST/STM32F4xx/Include/system_stm32f4xx.h"
 194              		.file 5 "Drivers/CMSIS/Device/ST/STM32F4xx/Include/stm32f411xe.h"
 195              		.file 6 "Drivers/STM32F4xx_HAL_Driver/Inc/stm32f4xx_hal_gpio.h"
 196              		.file 7 "Drivers/STM32F4xx_HAL_Driver/Inc/stm32f4xx_hal.h"
 197              		.file 8 "Core/Inc/trigger.hpp"
 198              		.file 9 "Drivers/STM32F4xx_HAL_Driver/Inc/stm32f4xx_hal_cortex.h"
ARM GAS  /tmp/ccR9t7Ar.s 			page 5

