ARM GAS  /tmp/ccamjycf.s 			page 1


   1              		.cpu cortex-m4
   2              		.eabi_attribute 27, 1
   3              		.eabi_attribute 28, 1
   4              		.eabi_attribute 20, 1
   5              		.eabi_attribute 21, 1
   6              		.eabi_attribute 23, 3
   7              		.eabi_attribute 24, 1
   8              		.eabi_attribute 25, 1
   9              		.eabi_attribute 26, 1
  10              		.eabi_attribute 30, 1
  11              		.eabi_attribute 34, 1
  12              		.eabi_attribute 18, 4
  13              		.file	"uart.cpp"
  14              		.text
  15              	.Ltext0:
  16              		.cfi_sections	.debug_frame
  17              		.section	.text._Z41__static_initialization_and_destruction_0ii,"ax",%progbits
  18              		.align	1
  19              		.arch armv7e-m
  20              		.syntax unified
  21              		.thumb
  22              		.thumb_func
  23              		.fpu fpv4-sp-d16
  25              	_Z41__static_initialization_and_destruction_0ii:
  26              		.fnstart
  27              	.LVL0:
  28              	.LFB2471:
  29              		.file 1 "Core/Src/uart.cpp"
   1:Core/Src/uart.cpp **** #include "uart.hpp"
   2:Core/Src/uart.cpp **** 
   3:Core/Src/uart.cpp **** uart::uart(uart_num uartNum_, uint32_t baudrate_) //TODO:Think to add parity and HW control in the 
   4:Core/Src/uart.cpp **** {
   5:Core/Src/uart.cpp ****     uartNum=uartNum_;
   6:Core/Src/uart.cpp ****     baudrate=baudrate_;
   7:Core/Src/uart.cpp **** 
   8:Core/Src/uart.cpp **** }
   9:Core/Src/uart.cpp **** void uart::init()
  10:Core/Src/uart.cpp **** {
  11:Core/Src/uart.cpp ****     switch(uartNum)
  12:Core/Src/uart.cpp ****     {
  13:Core/Src/uart.cpp ****         case uart1:
  14:Core/Src/uart.cpp ****         uartx.Instance = USART1;
  15:Core/Src/uart.cpp ****             break;
  16:Core/Src/uart.cpp ****         case uart2:
  17:Core/Src/uart.cpp ****         uartx.Instance = USART2;
  18:Core/Src/uart.cpp ****             break;
  19:Core/Src/uart.cpp ****         case uart6:
  20:Core/Src/uart.cpp ****         uartx.Instance = USART6;
  21:Core/Src/uart.cpp ****             break;
  22:Core/Src/uart.cpp ****     }   
  23:Core/Src/uart.cpp ****     uartx.Init.BaudRate = baudrate;
  24:Core/Src/uart.cpp ****     uartx.Init.WordLength = UART_WORDLENGTH_8B;
  25:Core/Src/uart.cpp ****     uartx.Init.StopBits = UART_STOPBITS_1;
  26:Core/Src/uart.cpp ****     uartx.Init.Parity = UART_PARITY_NONE;
  27:Core/Src/uart.cpp ****     uartx.Init.Mode = UART_MODE_TX_RX;
  28:Core/Src/uart.cpp ****     uartx.Init.HwFlowCtl = UART_HWCONTROL_NONE;
  29:Core/Src/uart.cpp ****     uartx.Init.OverSampling = UART_OVERSAMPLING_16;
ARM GAS  /tmp/ccamjycf.s 			page 2


  30:Core/Src/uart.cpp **** 
  31:Core/Src/uart.cpp ****     if (HAL_UART_Init(&uartx) != HAL_OK)
  32:Core/Src/uart.cpp ****     {
  33:Core/Src/uart.cpp ****     Error_Handler();
  34:Core/Src/uart.cpp ****     }
  35:Core/Src/uart.cpp **** }
  36:Core/Src/uart.cpp **** uint8_t uart::send_recive(char* txString,const char* rxString)
  37:Core/Src/uart.cpp **** {
  38:Core/Src/uart.cpp ****     HAL_UART_Transmit(&uartx,(uint8_t*)txString, strlen(txString), 100);
  39:Core/Src/uart.cpp ****     return 1;
  40:Core/Src/uart.cpp **** 
  41:Core/Src/uart.cpp ****     //The problem with the compare is that it compares the whole buffer
  42:Core/Src/uart.cpp **** 
  43:Core/Src/uart.cpp ****     //set_recieve(strlen(rxString)-1); //Here we want to recieve the length of the string without t
  44:Core/Src/uart.cpp ****     // HAL_Delay(10000);//Give it some time to reply
  45:Core/Src/uart.cpp ****     // if(strcmp(rxString, rxbuffer)<2)
  46:Core/Src/uart.cpp ****     // {
  47:Core/Src/uart.cpp ****     //     return 1;
  48:Core/Src/uart.cpp ****     // }
  49:Core/Src/uart.cpp ****     // else
  50:Core/Src/uart.cpp ****     // {
  51:Core/Src/uart.cpp ****     //     return send_recive(txString, rxString); //In case we get a different message or we get n
  52:Core/Src/uart.cpp ****     // }
  53:Core/Src/uart.cpp ****     
  54:Core/Src/uart.cpp **** }
  55:Core/Src/uart.cpp **** 
  56:Core/Src/uart.cpp **** void uart::set_recieve(uint8_t count)
  57:Core/Src/uart.cpp **** {
  58:Core/Src/uart.cpp ****     HAL_UART_Receive_DMA(&uartx, (uint8_t*) rxbuffer,count);
  59:Core/Src/uart.cpp **** }
  60:Core/Src/uart.cpp **** 
  61:Core/Src/uart.cpp **** void uart::rx_cplt_callback()
  62:Core/Src/uart.cpp **** {
  63:Core/Src/uart.cpp ****     HAL_UART_Transmit(&uartx,(uint8_t*)rxbuffer, strlen(rxbuffer), 100);
  64:Core/Src/uart.cpp **** }
  65:Core/Src/uart.cpp **** void uart::Error_Handler(void)
  66:Core/Src/uart.cpp **** {
  67:Core/Src/uart.cpp ****   /* USER CODE BEGIN Error_Handler_Debug */
  68:Core/Src/uart.cpp ****   /* User can add his own implementation to report the HAL error return state */
  69:Core/Src/uart.cpp ****   __disable_irq();
  70:Core/Src/uart.cpp ****   while (1)
  71:Core/Src/uart.cpp ****   {
  72:Core/Src/uart.cpp ****   }
  73:Core/Src/uart.cpp ****   /* USER CODE END Error_Handler_Debug */
  74:Core/Src/uart.cpp **** }
  30              		.loc 1 74 1 view -0
  31              		.cfi_startproc
  32              		@ args = 0, pretend = 0, frame = 0
  33              		@ frame_needed = 0, uses_anonymous_args = 0
  34              		.loc 1 74 1 is_stmt 0 view .LVU1
  35 0000 0128     		cmp	r0, #1
  36 0002 00D0     		beq	.L7
  37              	.L4:
  38 0004 7047     		bx	lr
  39              	.L7:
  40              		.loc 1 74 1 discriminator 1 view .LVU2
  41 0006 4FF6FF73 		movw	r3, #65535
ARM GAS  /tmp/ccamjycf.s 			page 3


  42 000a 9942     		cmp	r1, r3
  43 000c FAD1     		bne	.L4
  44              		.loc 1 74 1 view .LVU3
  45 000e 10B5     		push	{r4, lr}
  46              	.LCFI0:
  47              		.cfi_def_cfa_offset 8
  48              		.cfi_offset 4, -8
  49              		.cfi_offset 14, -4
  50              		.file 2 "/usr/include/newlib/c++/9.2.1/iostream"
   1:/usr/include/newlib/c++/9.2.1/iostream **** // Standard iostream objects -*- C++ -*-
   2:/usr/include/newlib/c++/9.2.1/iostream **** 
   3:/usr/include/newlib/c++/9.2.1/iostream **** // Copyright (C) 1997-2019 Free Software Foundation, Inc.
   4:/usr/include/newlib/c++/9.2.1/iostream **** //
   5:/usr/include/newlib/c++/9.2.1/iostream **** // This file is part of the GNU ISO C++ Library.  This library is free
   6:/usr/include/newlib/c++/9.2.1/iostream **** // software; you can redistribute it and/or modify it under the
   7:/usr/include/newlib/c++/9.2.1/iostream **** // terms of the GNU General Public License as published by the
   8:/usr/include/newlib/c++/9.2.1/iostream **** // Free Software Foundation; either version 3, or (at your option)
   9:/usr/include/newlib/c++/9.2.1/iostream **** // any later version.
  10:/usr/include/newlib/c++/9.2.1/iostream **** 
  11:/usr/include/newlib/c++/9.2.1/iostream **** // This library is distributed in the hope that it will be useful,
  12:/usr/include/newlib/c++/9.2.1/iostream **** // but WITHOUT ANY WARRANTY; without even the implied warranty of
  13:/usr/include/newlib/c++/9.2.1/iostream **** // MERCHANTABILITY or FITNESS FOR A PARTICULAR PURPOSE.  See the
  14:/usr/include/newlib/c++/9.2.1/iostream **** // GNU General Public License for more details.
  15:/usr/include/newlib/c++/9.2.1/iostream **** 
  16:/usr/include/newlib/c++/9.2.1/iostream **** // Under Section 7 of GPL version 3, you are granted additional
  17:/usr/include/newlib/c++/9.2.1/iostream **** // permissions described in the GCC Runtime Library Exception, version
  18:/usr/include/newlib/c++/9.2.1/iostream **** // 3.1, as published by the Free Software Foundation.
  19:/usr/include/newlib/c++/9.2.1/iostream **** 
  20:/usr/include/newlib/c++/9.2.1/iostream **** // You should have received a copy of the GNU General Public License and
  21:/usr/include/newlib/c++/9.2.1/iostream **** // a copy of the GCC Runtime Library Exception along with this program;
  22:/usr/include/newlib/c++/9.2.1/iostream **** // see the files COPYING3 and COPYING.RUNTIME respectively.  If not, see
  23:/usr/include/newlib/c++/9.2.1/iostream **** // <http://www.gnu.org/licenses/>.
  24:/usr/include/newlib/c++/9.2.1/iostream **** 
  25:/usr/include/newlib/c++/9.2.1/iostream **** /** @file include/iostream
  26:/usr/include/newlib/c++/9.2.1/iostream ****  *  This is a Standard C++ Library header.
  27:/usr/include/newlib/c++/9.2.1/iostream ****  */
  28:/usr/include/newlib/c++/9.2.1/iostream **** 
  29:/usr/include/newlib/c++/9.2.1/iostream **** //
  30:/usr/include/newlib/c++/9.2.1/iostream **** // ISO C++ 14882: 27.3  Standard iostream objects
  31:/usr/include/newlib/c++/9.2.1/iostream **** //
  32:/usr/include/newlib/c++/9.2.1/iostream **** 
  33:/usr/include/newlib/c++/9.2.1/iostream **** #ifndef _GLIBCXX_IOSTREAM
  34:/usr/include/newlib/c++/9.2.1/iostream **** #define _GLIBCXX_IOSTREAM 1
  35:/usr/include/newlib/c++/9.2.1/iostream **** 
  36:/usr/include/newlib/c++/9.2.1/iostream **** #pragma GCC system_header
  37:/usr/include/newlib/c++/9.2.1/iostream **** 
  38:/usr/include/newlib/c++/9.2.1/iostream **** #include <bits/c++config.h>
  39:/usr/include/newlib/c++/9.2.1/iostream **** #include <ostream>
  40:/usr/include/newlib/c++/9.2.1/iostream **** #include <istream>
  41:/usr/include/newlib/c++/9.2.1/iostream **** 
  42:/usr/include/newlib/c++/9.2.1/iostream **** namespace std _GLIBCXX_VISIBILITY(default)
  43:/usr/include/newlib/c++/9.2.1/iostream **** {
  44:/usr/include/newlib/c++/9.2.1/iostream **** _GLIBCXX_BEGIN_NAMESPACE_VERSION
  45:/usr/include/newlib/c++/9.2.1/iostream **** 
  46:/usr/include/newlib/c++/9.2.1/iostream ****   /**
  47:/usr/include/newlib/c++/9.2.1/iostream ****    *  @name Standard Stream Objects
  48:/usr/include/newlib/c++/9.2.1/iostream ****    *
ARM GAS  /tmp/ccamjycf.s 			page 4


  49:/usr/include/newlib/c++/9.2.1/iostream ****    *  The &lt;iostream&gt; header declares the eight <em>standard stream
  50:/usr/include/newlib/c++/9.2.1/iostream ****    *  objects</em>.  For other declarations, see
  51:/usr/include/newlib/c++/9.2.1/iostream ****    *  http://gcc.gnu.org/onlinedocs/libstdc++/manual/io.html
  52:/usr/include/newlib/c++/9.2.1/iostream ****    *  and the @link iosfwd I/O forward declarations @endlink
  53:/usr/include/newlib/c++/9.2.1/iostream ****    *
  54:/usr/include/newlib/c++/9.2.1/iostream ****    *  They are required by default to cooperate with the global C
  55:/usr/include/newlib/c++/9.2.1/iostream ****    *  library's @c FILE streams, and to be available during program
  56:/usr/include/newlib/c++/9.2.1/iostream ****    *  startup and termination. For more information, see the section of the
  57:/usr/include/newlib/c++/9.2.1/iostream ****    *  manual linked to above.
  58:/usr/include/newlib/c++/9.2.1/iostream ****   */
  59:/usr/include/newlib/c++/9.2.1/iostream ****   //@{
  60:/usr/include/newlib/c++/9.2.1/iostream ****   extern istream cin;		/// Linked to standard input
  61:/usr/include/newlib/c++/9.2.1/iostream ****   extern ostream cout;		/// Linked to standard output
  62:/usr/include/newlib/c++/9.2.1/iostream ****   extern ostream cerr;		/// Linked to standard error (unbuffered)
  63:/usr/include/newlib/c++/9.2.1/iostream ****   extern ostream clog;		/// Linked to standard error (buffered)
  64:/usr/include/newlib/c++/9.2.1/iostream **** 
  65:/usr/include/newlib/c++/9.2.1/iostream **** #ifdef _GLIBCXX_USE_WCHAR_T
  66:/usr/include/newlib/c++/9.2.1/iostream ****   extern wistream wcin;		/// Linked to standard input
  67:/usr/include/newlib/c++/9.2.1/iostream ****   extern wostream wcout;	/// Linked to standard output
  68:/usr/include/newlib/c++/9.2.1/iostream ****   extern wostream wcerr;	/// Linked to standard error (unbuffered)
  69:/usr/include/newlib/c++/9.2.1/iostream ****   extern wostream wclog;	/// Linked to standard error (buffered)
  70:/usr/include/newlib/c++/9.2.1/iostream **** #endif
  71:/usr/include/newlib/c++/9.2.1/iostream ****   //@}
  72:/usr/include/newlib/c++/9.2.1/iostream **** 
  73:/usr/include/newlib/c++/9.2.1/iostream ****   // For construction of filebuffers for cout, cin, cerr, clog et. al.
  74:/usr/include/newlib/c++/9.2.1/iostream ****   static ios_base::Init __ioinit;
  51              		.loc 2 74 25 view .LVU4
  52 0010 044C     		ldr	r4, .L8
  53 0012 2046     		mov	r0, r4
  54              	.LVL1:
  55              		.loc 2 74 25 view .LVU5
  56 0014 FFF7FEFF 		bl	_ZNSt8ios_base4InitC1Ev
  57              	.LVL2:
  58              		.loc 2 74 25 view .LVU6
  59 0018 034A     		ldr	r2, .L8+4
  60 001a 0449     		ldr	r1, .L8+8
  61 001c 2046     		mov	r0, r4
  62 001e FFF7FEFF 		bl	__aeabi_atexit
  63              	.LVL3:
  64              		.loc 1 74 1 view .LVU7
  65 0022 10BD     		pop	{r4, pc}
  66              	.L9:
  67              		.align	2
  68              	.L8:
  69 0024 00000000 		.word	.LANCHOR0
  70 0028 00000000 		.word	__dso_handle
  71 002c 00000000 		.word	_ZNSt8ios_base4InitD1Ev
  72              		.cfi_endproc
  73              	.LFE2471:
  74              		.cantunwind
  75              		.fnend
  77              		.section	.text._ZN4uartC2ENS_8uart_numEm,"ax",%progbits
  78              		.align	1
  79              		.global	_ZN4uartC2ENS_8uart_numEm
  80              		.syntax unified
  81              		.thumb
  82              		.thumb_func
ARM GAS  /tmp/ccamjycf.s 			page 5


  83              		.fpu fpv4-sp-d16
  85              	_ZN4uartC2ENS_8uart_numEm:
  86              		.fnstart
  87              	.LVL4:
  88              	.LFB1985:
   3:Core/Src/uart.cpp **** {
  89              		.loc 1 3 1 is_stmt 1 view -0
  90              		.cfi_startproc
  91              		@ args = 0, pretend = 0, frame = 0
  92              		@ frame_needed = 0, uses_anonymous_args = 0
  93              		@ link register save eliminated.
  94              	.LBB4:
   5:Core/Src/uart.cpp ****     baudrate=baudrate_;
  95              		.loc 1 5 5 view .LVU9
   5:Core/Src/uart.cpp ****     baudrate=baudrate_;
  96              		.loc 1 5 12 is_stmt 0 view .LVU10
  97 0000 80F88C11 		strb	r1, [r0, #396]
   6:Core/Src/uart.cpp **** 
  98              		.loc 1 6 5 is_stmt 1 view .LVU11
   6:Core/Src/uart.cpp **** 
  99              		.loc 1 6 13 is_stmt 0 view .LVU12
 100 0004 C0F88821 		str	r2, [r0, #392]
 101              	.LBE4:
   8:Core/Src/uart.cpp **** void uart::init()
 102              		.loc 1 8 1 view .LVU13
 103 0008 7047     		bx	lr
 104              		.cfi_endproc
 105              	.LFE1985:
 106              		.cantunwind
 107              		.fnend
 109              		.global	_ZN4uartC1ENS_8uart_numEm
 110              		.thumb_set _ZN4uartC1ENS_8uart_numEm,_ZN4uartC2ENS_8uart_numEm
 111              		.section	.text._ZN4uart11send_reciveEPcPKc,"ax",%progbits
 112              		.align	1
 113              		.global	_ZN4uart11send_reciveEPcPKc
 114              		.syntax unified
 115              		.thumb
 116              		.thumb_func
 117              		.fpu fpv4-sp-d16
 119              	_ZN4uart11send_reciveEPcPKc:
 120              		.fnstart
 121              	.LVL5:
 122              	.LFB1988:
  37:Core/Src/uart.cpp ****     HAL_UART_Transmit(&uartx,(uint8_t*)txString, strlen(txString), 100);
 123              		.loc 1 37 1 is_stmt 1 view -0
 124              		.cfi_startproc
 125              		@ args = 0, pretend = 0, frame = 0
 126              		@ frame_needed = 0, uses_anonymous_args = 0
  37:Core/Src/uart.cpp ****     HAL_UART_Transmit(&uartx,(uint8_t*)txString, strlen(txString), 100);
 127              		.loc 1 37 1 is_stmt 0 view .LVU15
 128 0000 38B5     		push	{r3, r4, r5, lr}
 129              		.save {r3, r4, r5, lr}
 130              	.LCFI1:
 131              		.cfi_def_cfa_offset 16
 132              		.cfi_offset 3, -16
 133              		.cfi_offset 4, -12
 134              		.cfi_offset 5, -8
ARM GAS  /tmp/ccamjycf.s 			page 6


 135              		.cfi_offset 14, -4
 136 0002 0546     		mov	r5, r0
 137 0004 0C46     		mov	r4, r1
  38:Core/Src/uart.cpp ****     return 1;
 138              		.loc 1 38 5 is_stmt 1 view .LVU16
  38:Core/Src/uart.cpp ****     return 1;
 139              		.loc 1 38 56 is_stmt 0 view .LVU17
 140 0006 0846     		mov	r0, r1
 141              	.LVL6:
  38:Core/Src/uart.cpp ****     return 1;
 142              		.loc 1 38 56 view .LVU18
 143 0008 FFF7FEFF 		bl	strlen
 144              	.LVL7:
  38:Core/Src/uart.cpp ****     return 1;
 145              		.loc 1 38 22 view .LVU19
 146 000c 6423     		movs	r3, #100
 147 000e 82B2     		uxth	r2, r0
 148 0010 2146     		mov	r1, r4
 149 0012 05F5C870 		add	r0, r5, #400
 150 0016 FFF7FEFF 		bl	HAL_UART_Transmit
 151              	.LVL8:
  39:Core/Src/uart.cpp **** 
 152              		.loc 1 39 5 is_stmt 1 view .LVU20
  54:Core/Src/uart.cpp **** 
 153              		.loc 1 54 1 is_stmt 0 view .LVU21
 154 001a 0120     		movs	r0, #1
 155 001c 38BD     		pop	{r3, r4, r5, pc}
  54:Core/Src/uart.cpp **** 
 156              		.loc 1 54 1 view .LVU22
 157              		.cfi_endproc
 158              	.LFE1988:
 159              		.fnend
 161              		.section	.text._ZN4uart11set_recieveEh,"ax",%progbits
 162              		.align	1
 163              		.global	_ZN4uart11set_recieveEh
 164              		.syntax unified
 165              		.thumb
 166              		.thumb_func
 167              		.fpu fpv4-sp-d16
 169              	_ZN4uart11set_recieveEh:
 170              		.fnstart
 171              	.LVL9:
 172              	.LFB1989:
  57:Core/Src/uart.cpp ****     HAL_UART_Receive_DMA(&uartx, (uint8_t*) rxbuffer,count);
 173              		.loc 1 57 1 is_stmt 1 view -0
 174              		.cfi_startproc
 175              		@ args = 0, pretend = 0, frame = 0
 176              		@ frame_needed = 0, uses_anonymous_args = 0
  57:Core/Src/uart.cpp ****     HAL_UART_Receive_DMA(&uartx, (uint8_t*) rxbuffer,count);
 177              		.loc 1 57 1 is_stmt 0 view .LVU24
 178 0000 08B5     		push	{r3, lr}
 179              		.save {r3, lr}
 180              	.LCFI2:
 181              		.cfi_def_cfa_offset 8
 182              		.cfi_offset 3, -8
 183              		.cfi_offset 14, -4
 184 0002 0A46     		mov	r2, r1
ARM GAS  /tmp/ccamjycf.s 			page 7


  58:Core/Src/uart.cpp **** }
 185              		.loc 1 58 5 is_stmt 1 view .LVU25
  58:Core/Src/uart.cpp **** }
 186              		.loc 1 58 25 is_stmt 0 view .LVU26
 187 0004 00F59271 		add	r1, r0, #292
 188              	.LVL10:
  58:Core/Src/uart.cpp **** }
 189              		.loc 1 58 25 view .LVU27
 190 0008 00F5C870 		add	r0, r0, #400
 191              	.LVL11:
  58:Core/Src/uart.cpp **** }
 192              		.loc 1 58 25 view .LVU28
 193 000c FFF7FEFF 		bl	HAL_UART_Receive_DMA
 194              	.LVL12:
  59:Core/Src/uart.cpp **** 
 195              		.loc 1 59 1 view .LVU29
 196 0010 08BD     		pop	{r3, pc}
 197              		.cfi_endproc
 198              	.LFE1989:
 199              		.fnend
 201              		.section	.text._ZN4uart16rx_cplt_callbackEv,"ax",%progbits
 202              		.align	1
 203              		.global	_ZN4uart16rx_cplt_callbackEv
 204              		.syntax unified
 205              		.thumb
 206              		.thumb_func
 207              		.fpu fpv4-sp-d16
 209              	_ZN4uart16rx_cplt_callbackEv:
 210              		.fnstart
 211              	.LVL13:
 212              	.LFB1990:
  62:Core/Src/uart.cpp ****     HAL_UART_Transmit(&uartx,(uint8_t*)rxbuffer, strlen(rxbuffer), 100);
 213              		.loc 1 62 1 is_stmt 1 view -0
 214              		.cfi_startproc
 215              		@ args = 0, pretend = 0, frame = 0
 216              		@ frame_needed = 0, uses_anonymous_args = 0
  62:Core/Src/uart.cpp ****     HAL_UART_Transmit(&uartx,(uint8_t*)rxbuffer, strlen(rxbuffer), 100);
 217              		.loc 1 62 1 is_stmt 0 view .LVU31
 218 0000 38B5     		push	{r3, r4, r5, lr}
 219              		.save {r3, r4, r5, lr}
 220              	.LCFI3:
 221              		.cfi_def_cfa_offset 16
 222              		.cfi_offset 3, -16
 223              		.cfi_offset 4, -12
 224              		.cfi_offset 5, -8
 225              		.cfi_offset 14, -4
 226 0002 0446     		mov	r4, r0
  63:Core/Src/uart.cpp **** }
 227              		.loc 1 63 5 is_stmt 1 view .LVU32
  63:Core/Src/uart.cpp **** }
 228              		.loc 1 63 40 is_stmt 0 view .LVU33
 229 0004 00F59275 		add	r5, r0, #292
  63:Core/Src/uart.cpp **** }
 230              		.loc 1 63 56 view .LVU34
 231 0008 2846     		mov	r0, r5
 232              	.LVL14:
  63:Core/Src/uart.cpp **** }
ARM GAS  /tmp/ccamjycf.s 			page 8


 233              		.loc 1 63 56 view .LVU35
 234 000a FFF7FEFF 		bl	strlen
 235              	.LVL15:
  63:Core/Src/uart.cpp **** }
 236              		.loc 1 63 22 view .LVU36
 237 000e 6423     		movs	r3, #100
 238 0010 82B2     		uxth	r2, r0
 239 0012 2946     		mov	r1, r5
 240 0014 04F5C870 		add	r0, r4, #400
 241 0018 FFF7FEFF 		bl	HAL_UART_Transmit
 242              	.LVL16:
  64:Core/Src/uart.cpp **** void uart::Error_Handler(void)
 243              		.loc 1 64 1 view .LVU37
 244 001c 38BD     		pop	{r3, r4, r5, pc}
  64:Core/Src/uart.cpp **** void uart::Error_Handler(void)
 245              		.loc 1 64 1 view .LVU38
 246              		.cfi_endproc
 247              	.LFE1990:
 248              		.fnend
 250              		.section	.text._ZN4uart13Error_HandlerEv,"ax",%progbits
 251              		.align	1
 252              		.global	_ZN4uart13Error_HandlerEv
 253              		.syntax unified
 254              		.thumb
 255              		.thumb_func
 256              		.fpu fpv4-sp-d16
 258              	_ZN4uart13Error_HandlerEv:
 259              		.fnstart
 260              	.LVL17:
 261              	.LFB1991:
  66:Core/Src/uart.cpp ****   /* USER CODE BEGIN Error_Handler_Debug */
 262              		.loc 1 66 1 is_stmt 1 view -0
 263              		.cfi_startproc
 264              		@ Volatile: function does not return.
 265              		@ args = 0, pretend = 0, frame = 0
 266              		@ frame_needed = 0, uses_anonymous_args = 0
 267              		@ link register save eliminated.
  69:Core/Src/uart.cpp ****   while (1)
 268              		.loc 1 69 3 view .LVU40
 269              	.LBB5:
 270              	.LBI5:
 271              		.file 3 "Drivers/CMSIS/Include/cmsis_gcc.h"
   1:Drivers/CMSIS/Include/cmsis_gcc.h **** /**************************************************************************//**
   2:Drivers/CMSIS/Include/cmsis_gcc.h ****  * @file     cmsis_gcc.h
   3:Drivers/CMSIS/Include/cmsis_gcc.h ****  * @brief    CMSIS compiler GCC header file
   4:Drivers/CMSIS/Include/cmsis_gcc.h ****  * @version  V5.0.4
   5:Drivers/CMSIS/Include/cmsis_gcc.h ****  * @date     09. April 2018
   6:Drivers/CMSIS/Include/cmsis_gcc.h ****  ******************************************************************************/
   7:Drivers/CMSIS/Include/cmsis_gcc.h **** /*
   8:Drivers/CMSIS/Include/cmsis_gcc.h ****  * Copyright (c) 2009-2018 Arm Limited. All rights reserved.
   9:Drivers/CMSIS/Include/cmsis_gcc.h ****  *
  10:Drivers/CMSIS/Include/cmsis_gcc.h ****  * SPDX-License-Identifier: Apache-2.0
  11:Drivers/CMSIS/Include/cmsis_gcc.h ****  *
  12:Drivers/CMSIS/Include/cmsis_gcc.h ****  * Licensed under the Apache License, Version 2.0 (the License); you may
  13:Drivers/CMSIS/Include/cmsis_gcc.h ****  * not use this file except in compliance with the License.
  14:Drivers/CMSIS/Include/cmsis_gcc.h ****  * You may obtain a copy of the License at
  15:Drivers/CMSIS/Include/cmsis_gcc.h ****  *
ARM GAS  /tmp/ccamjycf.s 			page 9


  16:Drivers/CMSIS/Include/cmsis_gcc.h ****  * www.apache.org/licenses/LICENSE-2.0
  17:Drivers/CMSIS/Include/cmsis_gcc.h ****  *
  18:Drivers/CMSIS/Include/cmsis_gcc.h ****  * Unless required by applicable law or agreed to in writing, software
  19:Drivers/CMSIS/Include/cmsis_gcc.h ****  * distributed under the License is distributed on an AS IS BASIS, WITHOUT
  20:Drivers/CMSIS/Include/cmsis_gcc.h ****  * WARRANTIES OR CONDITIONS OF ANY KIND, either express or implied.
  21:Drivers/CMSIS/Include/cmsis_gcc.h ****  * See the License for the specific language governing permissions and
  22:Drivers/CMSIS/Include/cmsis_gcc.h ****  * limitations under the License.
  23:Drivers/CMSIS/Include/cmsis_gcc.h ****  */
  24:Drivers/CMSIS/Include/cmsis_gcc.h **** 
  25:Drivers/CMSIS/Include/cmsis_gcc.h **** #ifndef __CMSIS_GCC_H
  26:Drivers/CMSIS/Include/cmsis_gcc.h **** #define __CMSIS_GCC_H
  27:Drivers/CMSIS/Include/cmsis_gcc.h **** 
  28:Drivers/CMSIS/Include/cmsis_gcc.h **** /* ignore some GCC warnings */
  29:Drivers/CMSIS/Include/cmsis_gcc.h **** #pragma GCC diagnostic push
  30:Drivers/CMSIS/Include/cmsis_gcc.h **** #pragma GCC diagnostic ignored "-Wsign-conversion"
  31:Drivers/CMSIS/Include/cmsis_gcc.h **** #pragma GCC diagnostic ignored "-Wconversion"
  32:Drivers/CMSIS/Include/cmsis_gcc.h **** #pragma GCC diagnostic ignored "-Wunused-parameter"
  33:Drivers/CMSIS/Include/cmsis_gcc.h **** 
  34:Drivers/CMSIS/Include/cmsis_gcc.h **** /* Fallback for __has_builtin */
  35:Drivers/CMSIS/Include/cmsis_gcc.h **** #ifndef __has_builtin
  36:Drivers/CMSIS/Include/cmsis_gcc.h ****   #define __has_builtin(x) (0)
  37:Drivers/CMSIS/Include/cmsis_gcc.h **** #endif
  38:Drivers/CMSIS/Include/cmsis_gcc.h **** 
  39:Drivers/CMSIS/Include/cmsis_gcc.h **** /* CMSIS compiler specific defines */
  40:Drivers/CMSIS/Include/cmsis_gcc.h **** #ifndef   __ASM
  41:Drivers/CMSIS/Include/cmsis_gcc.h ****   #define __ASM                                  __asm
  42:Drivers/CMSIS/Include/cmsis_gcc.h **** #endif
  43:Drivers/CMSIS/Include/cmsis_gcc.h **** #ifndef   __INLINE
  44:Drivers/CMSIS/Include/cmsis_gcc.h ****   #define __INLINE                               inline
  45:Drivers/CMSIS/Include/cmsis_gcc.h **** #endif
  46:Drivers/CMSIS/Include/cmsis_gcc.h **** #ifndef   __STATIC_INLINE
  47:Drivers/CMSIS/Include/cmsis_gcc.h ****   #define __STATIC_INLINE                        static inline
  48:Drivers/CMSIS/Include/cmsis_gcc.h **** #endif
  49:Drivers/CMSIS/Include/cmsis_gcc.h **** #ifndef   __STATIC_FORCEINLINE                 
  50:Drivers/CMSIS/Include/cmsis_gcc.h ****   #define __STATIC_FORCEINLINE                   __attribute__((always_inline)) static inline
  51:Drivers/CMSIS/Include/cmsis_gcc.h **** #endif                                           
  52:Drivers/CMSIS/Include/cmsis_gcc.h **** #ifndef   __NO_RETURN
  53:Drivers/CMSIS/Include/cmsis_gcc.h ****   #define __NO_RETURN                            __attribute__((__noreturn__))
  54:Drivers/CMSIS/Include/cmsis_gcc.h **** #endif
  55:Drivers/CMSIS/Include/cmsis_gcc.h **** #ifndef   __USED
  56:Drivers/CMSIS/Include/cmsis_gcc.h ****   #define __USED                                 __attribute__((used))
  57:Drivers/CMSIS/Include/cmsis_gcc.h **** #endif
  58:Drivers/CMSIS/Include/cmsis_gcc.h **** #ifndef   __WEAK
  59:Drivers/CMSIS/Include/cmsis_gcc.h ****   #define __WEAK                                 __attribute__((weak))
  60:Drivers/CMSIS/Include/cmsis_gcc.h **** #endif
  61:Drivers/CMSIS/Include/cmsis_gcc.h **** #ifndef   __PACKED
  62:Drivers/CMSIS/Include/cmsis_gcc.h ****   #define __PACKED                               __attribute__((packed, aligned(1)))
  63:Drivers/CMSIS/Include/cmsis_gcc.h **** #endif
  64:Drivers/CMSIS/Include/cmsis_gcc.h **** #ifndef   __PACKED_STRUCT
  65:Drivers/CMSIS/Include/cmsis_gcc.h ****   #define __PACKED_STRUCT                        struct __attribute__((packed, aligned(1)))
  66:Drivers/CMSIS/Include/cmsis_gcc.h **** #endif
  67:Drivers/CMSIS/Include/cmsis_gcc.h **** #ifndef   __PACKED_UNION
  68:Drivers/CMSIS/Include/cmsis_gcc.h ****   #define __PACKED_UNION                         union __attribute__((packed, aligned(1)))
  69:Drivers/CMSIS/Include/cmsis_gcc.h **** #endif
  70:Drivers/CMSIS/Include/cmsis_gcc.h **** #ifndef   __UNALIGNED_UINT32        /* deprecated */
  71:Drivers/CMSIS/Include/cmsis_gcc.h ****   #pragma GCC diagnostic push
  72:Drivers/CMSIS/Include/cmsis_gcc.h ****   #pragma GCC diagnostic ignored "-Wpacked"
ARM GAS  /tmp/ccamjycf.s 			page 10


  73:Drivers/CMSIS/Include/cmsis_gcc.h ****   #pragma GCC diagnostic ignored "-Wattributes"
  74:Drivers/CMSIS/Include/cmsis_gcc.h ****   struct __attribute__((packed)) T_UINT32 { uint32_t v; };
  75:Drivers/CMSIS/Include/cmsis_gcc.h ****   #pragma GCC diagnostic pop
  76:Drivers/CMSIS/Include/cmsis_gcc.h ****   #define __UNALIGNED_UINT32(x)                  (((struct T_UINT32 *)(x))->v)
  77:Drivers/CMSIS/Include/cmsis_gcc.h **** #endif
  78:Drivers/CMSIS/Include/cmsis_gcc.h **** #ifndef   __UNALIGNED_UINT16_WRITE
  79:Drivers/CMSIS/Include/cmsis_gcc.h ****   #pragma GCC diagnostic push
  80:Drivers/CMSIS/Include/cmsis_gcc.h ****   #pragma GCC diagnostic ignored "-Wpacked"
  81:Drivers/CMSIS/Include/cmsis_gcc.h ****   #pragma GCC diagnostic ignored "-Wattributes"
  82:Drivers/CMSIS/Include/cmsis_gcc.h ****   __PACKED_STRUCT T_UINT16_WRITE { uint16_t v; };
  83:Drivers/CMSIS/Include/cmsis_gcc.h ****   #pragma GCC diagnostic pop
  84:Drivers/CMSIS/Include/cmsis_gcc.h ****   #define __UNALIGNED_UINT16_WRITE(addr, val)    (void)((((struct T_UINT16_WRITE *)(void *)(addr))-
  85:Drivers/CMSIS/Include/cmsis_gcc.h **** #endif
  86:Drivers/CMSIS/Include/cmsis_gcc.h **** #ifndef   __UNALIGNED_UINT16_READ
  87:Drivers/CMSIS/Include/cmsis_gcc.h ****   #pragma GCC diagnostic push
  88:Drivers/CMSIS/Include/cmsis_gcc.h ****   #pragma GCC diagnostic ignored "-Wpacked"
  89:Drivers/CMSIS/Include/cmsis_gcc.h ****   #pragma GCC diagnostic ignored "-Wattributes"
  90:Drivers/CMSIS/Include/cmsis_gcc.h ****   __PACKED_STRUCT T_UINT16_READ { uint16_t v; };
  91:Drivers/CMSIS/Include/cmsis_gcc.h ****   #pragma GCC diagnostic pop
  92:Drivers/CMSIS/Include/cmsis_gcc.h ****   #define __UNALIGNED_UINT16_READ(addr)          (((const struct T_UINT16_READ *)(const void *)(add
  93:Drivers/CMSIS/Include/cmsis_gcc.h **** #endif
  94:Drivers/CMSIS/Include/cmsis_gcc.h **** #ifndef   __UNALIGNED_UINT32_WRITE
  95:Drivers/CMSIS/Include/cmsis_gcc.h ****   #pragma GCC diagnostic push
  96:Drivers/CMSIS/Include/cmsis_gcc.h ****   #pragma GCC diagnostic ignored "-Wpacked"
  97:Drivers/CMSIS/Include/cmsis_gcc.h ****   #pragma GCC diagnostic ignored "-Wattributes"
  98:Drivers/CMSIS/Include/cmsis_gcc.h ****   __PACKED_STRUCT T_UINT32_WRITE { uint32_t v; };
  99:Drivers/CMSIS/Include/cmsis_gcc.h ****   #pragma GCC diagnostic pop
 100:Drivers/CMSIS/Include/cmsis_gcc.h ****   #define __UNALIGNED_UINT32_WRITE(addr, val)    (void)((((struct T_UINT32_WRITE *)(void *)(addr))-
 101:Drivers/CMSIS/Include/cmsis_gcc.h **** #endif
 102:Drivers/CMSIS/Include/cmsis_gcc.h **** #ifndef   __UNALIGNED_UINT32_READ
 103:Drivers/CMSIS/Include/cmsis_gcc.h ****   #pragma GCC diagnostic push
 104:Drivers/CMSIS/Include/cmsis_gcc.h ****   #pragma GCC diagnostic ignored "-Wpacked"
 105:Drivers/CMSIS/Include/cmsis_gcc.h ****   #pragma GCC diagnostic ignored "-Wattributes"
 106:Drivers/CMSIS/Include/cmsis_gcc.h ****   __PACKED_STRUCT T_UINT32_READ { uint32_t v; };
 107:Drivers/CMSIS/Include/cmsis_gcc.h ****   #pragma GCC diagnostic pop
 108:Drivers/CMSIS/Include/cmsis_gcc.h ****   #define __UNALIGNED_UINT32_READ(addr)          (((const struct T_UINT32_READ *)(const void *)(add
 109:Drivers/CMSIS/Include/cmsis_gcc.h **** #endif
 110:Drivers/CMSIS/Include/cmsis_gcc.h **** #ifndef   __ALIGNED
 111:Drivers/CMSIS/Include/cmsis_gcc.h ****   #define __ALIGNED(x)                           __attribute__((aligned(x)))
 112:Drivers/CMSIS/Include/cmsis_gcc.h **** #endif
 113:Drivers/CMSIS/Include/cmsis_gcc.h **** #ifndef   __RESTRICT
 114:Drivers/CMSIS/Include/cmsis_gcc.h ****   #define __RESTRICT                             __restrict
 115:Drivers/CMSIS/Include/cmsis_gcc.h **** #endif
 116:Drivers/CMSIS/Include/cmsis_gcc.h **** 
 117:Drivers/CMSIS/Include/cmsis_gcc.h **** 
 118:Drivers/CMSIS/Include/cmsis_gcc.h **** /* ###########################  Core Function Access  ########################### */
 119:Drivers/CMSIS/Include/cmsis_gcc.h **** /** \ingroup  CMSIS_Core_FunctionInterface
 120:Drivers/CMSIS/Include/cmsis_gcc.h ****     \defgroup CMSIS_Core_RegAccFunctions CMSIS Core Register Access Functions
 121:Drivers/CMSIS/Include/cmsis_gcc.h ****   @{
 122:Drivers/CMSIS/Include/cmsis_gcc.h ****  */
 123:Drivers/CMSIS/Include/cmsis_gcc.h **** 
 124:Drivers/CMSIS/Include/cmsis_gcc.h **** /**
 125:Drivers/CMSIS/Include/cmsis_gcc.h ****   \brief   Enable IRQ Interrupts
 126:Drivers/CMSIS/Include/cmsis_gcc.h ****   \details Enables IRQ interrupts by clearing the I-bit in the CPSR.
 127:Drivers/CMSIS/Include/cmsis_gcc.h ****            Can only be executed in Privileged modes.
 128:Drivers/CMSIS/Include/cmsis_gcc.h ****  */
 129:Drivers/CMSIS/Include/cmsis_gcc.h **** __STATIC_FORCEINLINE void __enable_irq(void)
ARM GAS  /tmp/ccamjycf.s 			page 11


 130:Drivers/CMSIS/Include/cmsis_gcc.h **** {
 131:Drivers/CMSIS/Include/cmsis_gcc.h ****   __ASM volatile ("cpsie i" : : : "memory");
 132:Drivers/CMSIS/Include/cmsis_gcc.h **** }
 133:Drivers/CMSIS/Include/cmsis_gcc.h **** 
 134:Drivers/CMSIS/Include/cmsis_gcc.h **** 
 135:Drivers/CMSIS/Include/cmsis_gcc.h **** /**
 136:Drivers/CMSIS/Include/cmsis_gcc.h ****   \brief   Disable IRQ Interrupts
 137:Drivers/CMSIS/Include/cmsis_gcc.h ****   \details Disables IRQ interrupts by setting the I-bit in the CPSR.
 138:Drivers/CMSIS/Include/cmsis_gcc.h ****            Can only be executed in Privileged modes.
 139:Drivers/CMSIS/Include/cmsis_gcc.h ****  */
 140:Drivers/CMSIS/Include/cmsis_gcc.h **** __STATIC_FORCEINLINE void __disable_irq(void)
 272              		.loc 3 140 27 view .LVU41
 273              	.LBB6:
 141:Drivers/CMSIS/Include/cmsis_gcc.h **** {
 142:Drivers/CMSIS/Include/cmsis_gcc.h ****   __ASM volatile ("cpsid i" : : : "memory");
 274              		.loc 3 142 3 view .LVU42
 275              		.loc 3 142 44 is_stmt 0 view .LVU43
 276              		.syntax unified
 277              	@ 142 "Drivers/CMSIS/Include/cmsis_gcc.h" 1
 278 0000 72B6     		cpsid i
 279              	@ 0 "" 2
 280              		.thumb
 281              		.syntax unified
 282              	.L18:
 283              	.LBE6:
 284              	.LBE5:
  70:Core/Src/uart.cpp ****   {
 285              		.loc 1 70 3 is_stmt 1 discriminator 1 view .LVU44
  70:Core/Src/uart.cpp ****   {
 286              		.loc 1 70 3 discriminator 1 view .LVU45
 287 0002 FEE7     		b	.L18
 288              		.cfi_endproc
 289              	.LFE1991:
 290              		.cantunwind
 291              		.fnend
 293              		.section	.text._ZN4uart4initEv,"ax",%progbits
 294              		.align	1
 295              		.global	_ZN4uart4initEv
 296              		.syntax unified
 297              		.thumb
 298              		.thumb_func
 299              		.fpu fpv4-sp-d16
 301              	_ZN4uart4initEv:
 302              		.fnstart
 303              	.LVL18:
 304              	.LFB1987:
  10:Core/Src/uart.cpp ****     switch(uartNum)
 305              		.loc 1 10 1 view -0
 306              		.cfi_startproc
 307              		@ args = 0, pretend = 0, frame = 0
 308              		@ frame_needed = 0, uses_anonymous_args = 0
  10:Core/Src/uart.cpp ****     switch(uartNum)
 309              		.loc 1 10 1 is_stmt 0 view .LVU47
 310 0000 10B5     		push	{r4, lr}
 311              		.save {r4, lr}
 312              	.LCFI4:
 313              		.cfi_def_cfa_offset 8
ARM GAS  /tmp/ccamjycf.s 			page 12


 314              		.cfi_offset 4, -8
 315              		.cfi_offset 14, -4
 316 0002 0446     		mov	r4, r0
  11:Core/Src/uart.cpp ****     {
 317              		.loc 1 11 5 is_stmt 1 view .LVU48
  11:Core/Src/uart.cpp ****     {
 318              		.loc 1 11 12 is_stmt 0 view .LVU49
 319 0004 90F88C31 		ldrb	r3, [r0, #396]	@ zero_extendqisi2
  11:Core/Src/uart.cpp ****     {
 320              		.loc 1 11 5 view .LVU50
 321 0008 022B     		cmp	r3, #2
 322 000a 1FD0     		beq	.L20
 323 000c 062B     		cmp	r3, #6
 324 000e 21D0     		beq	.L21
 325 0010 012B     		cmp	r3, #1
 326 0012 17D0     		beq	.L25
 327              	.L22:
  23:Core/Src/uart.cpp ****     uartx.Init.WordLength = UART_WORDLENGTH_8B;
 328              		.loc 1 23 5 is_stmt 1 view .LVU51
  23:Core/Src/uart.cpp ****     uartx.Init.WordLength = UART_WORDLENGTH_8B;
 329              		.loc 1 23 27 is_stmt 0 view .LVU52
 330 0014 D4F88831 		ldr	r3, [r4, #392]
  23:Core/Src/uart.cpp ****     uartx.Init.WordLength = UART_WORDLENGTH_8B;
 331              		.loc 1 23 25 view .LVU53
 332 0018 C4F89431 		str	r3, [r4, #404]
  24:Core/Src/uart.cpp ****     uartx.Init.StopBits = UART_STOPBITS_1;
 333              		.loc 1 24 5 is_stmt 1 view .LVU54
  24:Core/Src/uart.cpp ****     uartx.Init.StopBits = UART_STOPBITS_1;
 334              		.loc 1 24 27 is_stmt 0 view .LVU55
 335 001c 0023     		movs	r3, #0
 336 001e C4F89831 		str	r3, [r4, #408]
  25:Core/Src/uart.cpp ****     uartx.Init.Parity = UART_PARITY_NONE;
 337              		.loc 1 25 5 is_stmt 1 view .LVU56
  25:Core/Src/uart.cpp ****     uartx.Init.Parity = UART_PARITY_NONE;
 338              		.loc 1 25 25 is_stmt 0 view .LVU57
 339 0022 C4F89C31 		str	r3, [r4, #412]
  26:Core/Src/uart.cpp ****     uartx.Init.Mode = UART_MODE_TX_RX;
 340              		.loc 1 26 5 is_stmt 1 view .LVU58
  26:Core/Src/uart.cpp ****     uartx.Init.Mode = UART_MODE_TX_RX;
 341              		.loc 1 26 23 is_stmt 0 view .LVU59
 342 0026 C4F8A031 		str	r3, [r4, #416]
  27:Core/Src/uart.cpp ****     uartx.Init.HwFlowCtl = UART_HWCONTROL_NONE;
 343              		.loc 1 27 5 is_stmt 1 view .LVU60
  27:Core/Src/uart.cpp ****     uartx.Init.HwFlowCtl = UART_HWCONTROL_NONE;
 344              		.loc 1 27 21 is_stmt 0 view .LVU61
 345 002a 0C22     		movs	r2, #12
 346 002c C4F8A421 		str	r2, [r4, #420]
  28:Core/Src/uart.cpp ****     uartx.Init.OverSampling = UART_OVERSAMPLING_16;
 347              		.loc 1 28 5 is_stmt 1 view .LVU62
  28:Core/Src/uart.cpp ****     uartx.Init.OverSampling = UART_OVERSAMPLING_16;
 348              		.loc 1 28 26 is_stmt 0 view .LVU63
 349 0030 C4F8A831 		str	r3, [r4, #424]
  29:Core/Src/uart.cpp **** 
 350              		.loc 1 29 5 is_stmt 1 view .LVU64
  29:Core/Src/uart.cpp **** 
 351              		.loc 1 29 29 is_stmt 0 view .LVU65
 352 0034 C4F8AC31 		str	r3, [r4, #428]
ARM GAS  /tmp/ccamjycf.s 			page 13


  31:Core/Src/uart.cpp ****     {
 353              		.loc 1 31 5 is_stmt 1 view .LVU66
  31:Core/Src/uart.cpp ****     {
 354              		.loc 1 31 22 is_stmt 0 view .LVU67
 355 0038 04F5C870 		add	r0, r4, #400
 356              	.LVL19:
  31:Core/Src/uart.cpp ****     {
 357              		.loc 1 31 22 view .LVU68
 358 003c FFF7FEFF 		bl	HAL_UART_Init
 359              	.LVL20:
  31:Core/Src/uart.cpp ****     {
 360              		.loc 1 31 5 view .LVU69
 361 0040 60B9     		cbnz	r0, .L26
  35:Core/Src/uart.cpp **** uint8_t uart::send_recive(char* txString,const char* rxString)
 362              		.loc 1 35 1 view .LVU70
 363 0042 10BD     		pop	{r4, pc}
 364              	.LVL21:
 365              	.L25:
  13:Core/Src/uart.cpp ****         uartx.Instance = USART1;
 366              		.loc 1 13 9 is_stmt 1 view .LVU71
  14:Core/Src/uart.cpp ****             break;
 367              		.loc 1 14 9 view .LVU72
  14:Core/Src/uart.cpp ****             break;
 368              		.loc 1 14 24 is_stmt 0 view .LVU73
 369 0044 074B     		ldr	r3, .L27
 370 0046 C0F89031 		str	r3, [r0, #400]
  15:Core/Src/uart.cpp ****         case uart2:
 371              		.loc 1 15 13 is_stmt 1 view .LVU74
 372 004a E3E7     		b	.L22
 373              	.L20:
  16:Core/Src/uart.cpp ****         uartx.Instance = USART2;
 374              		.loc 1 16 9 view .LVU75
  17:Core/Src/uart.cpp ****             break;
 375              		.loc 1 17 9 view .LVU76
  17:Core/Src/uart.cpp ****             break;
 376              		.loc 1 17 24 is_stmt 0 view .LVU77
 377 004c 064B     		ldr	r3, .L27+4
 378 004e C0F89031 		str	r3, [r0, #400]
  18:Core/Src/uart.cpp ****         case uart6:
 379              		.loc 1 18 13 is_stmt 1 view .LVU78
 380 0052 DFE7     		b	.L22
 381              	.L21:
  19:Core/Src/uart.cpp ****         uartx.Instance = USART6;
 382              		.loc 1 19 9 view .LVU79
  20:Core/Src/uart.cpp ****             break;
 383              		.loc 1 20 9 view .LVU80
  20:Core/Src/uart.cpp ****             break;
 384              		.loc 1 20 24 is_stmt 0 view .LVU81
 385 0054 054B     		ldr	r3, .L27+8
 386 0056 C0F89031 		str	r3, [r0, #400]
  21:Core/Src/uart.cpp ****     }   
 387              		.loc 1 21 13 is_stmt 1 view .LVU82
 388 005a DBE7     		b	.L22
 389              	.LVL22:
 390              	.L26:
  33:Core/Src/uart.cpp ****     }
 391              		.loc 1 33 5 view .LVU83
ARM GAS  /tmp/ccamjycf.s 			page 14


  33:Core/Src/uart.cpp ****     }
 392              		.loc 1 33 18 is_stmt 0 view .LVU84
 393 005c 2046     		mov	r0, r4
 394 005e FFF7FEFF 		bl	_ZN4uart13Error_HandlerEv
 395              	.LVL23:
 396              	.L28:
 397 0062 00BF     		.align	2
 398              	.L27:
 399 0064 00100140 		.word	1073811456
 400 0068 00440040 		.word	1073759232
 401 006c 00140140 		.word	1073812480
 402              		.cfi_endproc
 403              	.LFE1987:
 404              		.fnend
 406              		.section	.text._GLOBAL__sub_I__ZN4uartC2ENS_8uart_numEm,"ax",%progbits
 407              		.align	1
 408              		.syntax unified
 409              		.thumb
 410              		.thumb_func
 411              		.fpu fpv4-sp-d16
 413              	_GLOBAL__sub_I__ZN4uartC2ENS_8uart_numEm:
 414              		.fnstart
 415              	.LFB2472:
 416              		.loc 1 74 1 is_stmt 1 view -0
 417              		.cfi_startproc
 418              		@ args = 0, pretend = 0, frame = 0
 419              		@ frame_needed = 0, uses_anonymous_args = 0
 420 0000 08B5     		push	{r3, lr}
 421              	.LCFI5:
 422              		.cfi_def_cfa_offset 8
 423              		.cfi_offset 3, -8
 424              		.cfi_offset 14, -4
 425              		.loc 1 74 1 is_stmt 0 view .LVU86
 426 0002 4FF6FF71 		movw	r1, #65535
 427 0006 0120     		movs	r0, #1
 428 0008 FFF7FEFF 		bl	_Z41__static_initialization_and_destruction_0ii
 429              	.LVL24:
 430 000c 08BD     		pop	{r3, pc}
 431              		.cfi_endproc
 432              	.LFE2472:
 433              		.cantunwind
 434              		.fnend
 436              		.section	.init_array,"aw",%init_array
 437              		.align	2
 438 0000 00000000 		.word	_GLOBAL__sub_I__ZN4uartC2ENS_8uart_numEm(target1)
 439              		.section	.bss._ZStL8__ioinit,"aw",%nobits
 440              		.align	2
 441              		.set	.LANCHOR0,. + 0
 444              	_ZStL8__ioinit:
 445 0000 00       		.space	1
 446              		.text
 447              	.Letext0:
 448              		.file 4 "/usr/lib/gcc/arm-none-eabi/9.2.1/include/stdint.h"
 449              		.file 5 "Drivers/CMSIS/Include/core_cm4.h"
 450              		.file 6 "Drivers/CMSIS/Device/ST/STM32F4xx/Include/system_stm32f4xx.h"
 451              		.file 7 "Drivers/CMSIS/Device/ST/STM32F4xx/Include/stm32f411xe.h"
 452              		.file 8 "/usr/lib/gcc/arm-none-eabi/9.2.1/include/stddef.h"
ARM GAS  /tmp/ccamjycf.s 			page 15


 453              		.file 9 "Drivers/STM32F4xx_HAL_Driver/Inc/stm32f4xx_hal_def.h"
 454              		.file 10 "Drivers/STM32F4xx_HAL_Driver/Inc/stm32f4xx_hal_dma.h"
 455              		.file 11 "Drivers/STM32F4xx_HAL_Driver/Inc/stm32f4xx_hal_uart.h"
 456              		.file 12 "Drivers/STM32F4xx_HAL_Driver/Inc/stm32f4xx_hal.h"
 457              		.file 13 "/usr/include/newlib/c++/9.2.1/cwchar"
 458              		.file 14 "/usr/include/newlib/c++/9.2.1/new"
 459              		.file 15 "/usr/include/newlib/c++/9.2.1/bits/exception_ptr.h"
 460              		.file 16 "/usr/include/newlib/c++/9.2.1/arm-none-eabi/thumb/v7e-m+fp/hard/bits/c++config.h"
 461              		.file 17 "/usr/include/newlib/c++/9.2.1/type_traits"
 462              		.file 18 "/usr/include/newlib/c++/9.2.1/bits/stl_pair.h"
 463              		.file 19 "/usr/include/newlib/c++/9.2.1/debug/debug.h"
 464              		.file 20 "/usr/include/newlib/c++/9.2.1/bits/char_traits.h"
 465              		.file 21 "/usr/include/newlib/c++/9.2.1/cstdint"
 466              		.file 22 "/usr/include/newlib/c++/9.2.1/clocale"
 467              		.file 23 "/usr/include/newlib/c++/9.2.1/cstdlib"
 468              		.file 24 "/usr/include/newlib/c++/9.2.1/cstdio"
 469              		.file 25 "/usr/include/newlib/c++/9.2.1/bits/basic_string.h"
 470              		.file 26 "/usr/include/newlib/c++/9.2.1/system_error"
 471              		.file 27 "/usr/include/newlib/c++/9.2.1/bits/ios_base.h"
 472              		.file 28 "/usr/include/newlib/c++/9.2.1/cwctype"
 473              		.file 29 "/usr/include/newlib/c++/9.2.1/iosfwd"
 474              		.file 30 "/usr/include/newlib/c++/9.2.1/bits/uses_allocator.h"
 475              		.file 31 "/usr/include/newlib/c++/9.2.1/tuple"
 476              		.file 32 "/usr/include/newlib/c++/9.2.1/functional"
 477              		.file 33 "/usr/include/newlib/c++/9.2.1/bits/predefined_ops.h"
 478              		.file 34 "/usr/include/newlib/c++/9.2.1/ext/new_allocator.h"
 479              		.file 35 "/usr/include/newlib/c++/9.2.1/ext/numeric_traits.h"
 480              		.file 36 "/usr/include/newlib/sys/_types.h"
 481              		.file 37 "<built-in>"
 482              		.file 38 "/usr/include/newlib/sys/reent.h"
 483              		.file 39 "/usr/include/newlib/sys/lock.h"
 484              		.file 40 "/usr/lib/gcc/arm-none-eabi/9.2.1/include/stdarg.h"
 485              		.file 41 "/usr/include/newlib/wchar.h"
 486              		.file 42 "/usr/include/newlib/locale.h"
 487              		.file 43 "/usr/include/newlib/ctype.h"
 488              		.file 44 "/usr/include/newlib/c++/9.2.1/arm-none-eabi/thumb/v7e-m+fp/hard/bits/atomic_word.h"
 489              		.file 45 "/usr/include/newlib/stdlib.h"
 490              		.file 46 "/usr/include/newlib/stdio.h"
 491              		.file 47 "/usr/include/newlib/sys/errno.h"
 492              		.file 48 "/usr/include/newlib/wctype.h"
 493              		.file 49 "Core/Inc/uart.hpp"
 494              		.file 50 "/usr/include/newlib/string.h"
ARM GAS  /tmp/ccamjycf.s 			page 16

